ccopy_reg
_reconstructor
p1
(cmatplotlib.font_manager
FontManager
p2
c__builtin__
object
p3
NtRp4
(dp5
S'ttflist'
p6
(lp7
g1
(cmatplotlib.font_manager
FontEntry
p8
g3
NtRp9
(dp10
S'style'
p11
Vnormal
p12
sS'name'
p13
S'cmss10'
p14
sS'weight'
p15
I400
sS'stretch'
p16
g12
sS'variant'
p17
g12
sS'fname'
p18
VC:\u005cAnaconda\u005clib\u005csite-packages\u005cmatplotlib\u005cmpl-data\u005cfonts\u005cttf\u005ccmss10.ttf
p19
sS'size'
p20
Vscalable
p21
sbag1
(g8
g3
NtRp22
(dp23
g11
g12
sg13
S'STIXGeneral'
p24
sg15
I700
sg16
g12
sg17
g12
sg18
VC:\u005cAnaconda\u005clib\u005csite-packages\u005cmatplotlib\u005cmpl-data\u005cfonts\u005cttf\u005cSTIXGeneralBol.ttf
p25
sg20
g21
sbag1
(g8
g3
NtRp26
(dp27
g11
Vitalic
p28
sg13
S'STIXNonUnicode'
p29
sg15
I400
sg16
g12
sg17
g12
sg18
VC:\u005cAnaconda\u005clib\u005csite-packages\u005cmatplotlib\u005cmpl-data\u005cfonts\u005cttf\u005cSTIXNonUniIta.ttf
p30
sg20
g21
sbag1
(g8
g3
NtRp31
(dp32
g11
Voblique
p33
sg13
S'Bitstream Vera Sans'
p34
sg15
I400
sg16
g12
sg17
g12
sg18
VC:\u005cAnaconda\u005clib\u005csite-packages\u005cmatplotlib\u005cmpl-data\u005cfonts\u005cttf\u005cVeraIt.ttf
p35
sg20
g21
sbag1
(g8
g3
NtRp36
(dp37
g11
g12
sg13
S'Bitstream Vera Serif'
p38
sg15
I700
sg16
g12
sg17
g12
sg18
VC:\u005cAnaconda\u005clib\u005csite-packages\u005cmatplotlib\u005cmpl-data\u005cfonts\u005cttf\u005cVeraSeBd.ttf
p39
sg20
g21
sbag1
(g8
g3
NtRp40
(dp41
g11
g12
sg13
S'STIXSizeFourSym'
p42
sg15
I400
sg16
g12
sg17
g12
sg18
VC:\u005cAnaconda\u005clib\u005csite-packages\u005cmatplotlib\u005cmpl-data\u005cfonts\u005cttf\u005cSTIXSizFourSymReg.ttf
p43
sg20
g21
sbag1
(g8
g3
NtRp44
(dp45
g11
g12
sg13
S'STIXSizeTwoSym'
p46
sg15
I400
sg16
g12
sg17
g12
sg18
VC:\u005cAnaconda\u005clib\u005csite-packages\u005cmatplotlib\u005cmpl-data\u005cfonts\u005cttf\u005cSTIXSizTwoSymReg.ttf
p47
sg20
g21
sbag1
(g8
g3
NtRp48
(dp49
g11
g12
sg13
S'STIXSizeFiveSym'
p50
sg15
I400
sg16
g12
sg17
g12
sg18
VC:\u005cAnaconda\u005clib\u005csite-packages\u005cmatplotlib\u005cmpl-data\u005cfonts\u005cttf\u005cSTIXSizFiveSymReg.ttf
p51
sg20
g21
sbag1
(g8
g3
NtRp52
(dp53
g11
g12
sg13
S'STIXNonUnicode'
p54
sg15
I700
sg16
g12
sg17
g12
sg18
VC:\u005cAnaconda\u005clib\u005csite-packages\u005cmatplotlib\u005cmpl-data\u005cfonts\u005cttf\u005cSTIXNonUniBol.ttf
p55
sg20
g21
sbag1
(g8
g3
NtRp56
(dp57
g11
g12
sg13
S'STIXNonUnicode'
p58
sg15
I400
sg16
g12
sg17
g12
sg18
VC:\u005cAnaconda\u005clib\u005csite-packages\u005cmatplotlib\u005cmpl-data\u005cfonts\u005cttf\u005cSTIXNonUni.ttf
p59
sg20
g21
sbag1
(g8
g3
NtRp60
(dp61
g11
g12
sg13
S'cmr10'
p62
sg15
I400
sg16
g12
sg17
g12
sg18
VC:\u005cAnaconda\u005clib\u005csite-packages\u005cmatplotlib\u005cmpl-data\u005cfonts\u005cttf\u005ccmr10.ttf
p63
sg20
g21
sbag1
(g8
g3
NtRp64
(dp65
g11
g33
sg13
S'Bitstream Vera Sans'
p66
sg15
I700
sg16
g12
sg17
g12
sg18
VC:\u005cAnaconda\u005clib\u005csite-packages\u005cmatplotlib\u005cmpl-data\u005cfonts\u005cttf\u005cVeraBI.ttf
p67
sg20
g21
sbag1
(g8
g3
NtRp68
(dp69
g11
g12
sg13
S'Bitstream Vera Sans'
p70
sg15
I400
sg16
g12
sg17
g12
sg18
VC:\u005cAnaconda\u005clib\u005csite-packages\u005cmatplotlib\u005cmpl-data\u005cfonts\u005cttf\u005cVera.ttf
p71
sg20
g21
sbag1
(g8
g3
NtRp72
(dp73
g11
g12
sg13
S'STIXSizeOneSym'
p74
sg15
I400
sg16
g12
sg17
g12
sg18
VC:\u005cAnaconda\u005clib\u005csite-packages\u005cmatplotlib\u005cmpl-data\u005cfonts\u005cttf\u005cSTIXSizOneSymReg.ttf
p75
sg20
g21
sbag1
(g8
g3
NtRp76
(dp77
g11
g33
sg13
S'Bitstream Vera Sans Mono'
p78
sg15
I700
sg16
g12
sg17
g12
sg18
VC:\u005cAnaconda\u005clib\u005csite-packages\u005cmatplotlib\u005cmpl-data\u005cfonts\u005cttf\u005cVeraMoBI.ttf
p79
sg20
g21
sbag1
(g8
g3
NtRp80
(dp81
g11
g12
sg13
S'Bitstream Vera Sans Mono'
p82
sg15
I400
sg16
g12
sg17
g12
sg18
VC:\u005cAnaconda\u005clib\u005csite-packages\u005cmatplotlib\u005cmpl-data\u005cfonts\u005cttf\u005cVeraMono.ttf
p83
sg20
g21
sbag1
(g8
g3
NtRp84
(dp85
g11
g12
sg13
S'Bitstream Vera Sans Mono'
p86
sg15
I700
sg16
g12
sg17
g12
sg18
VC:\u005cAnaconda\u005clib\u005csite-packages\u005cmatplotlib\u005cmpl-data\u005cfonts\u005cttf\u005cVeraMoBd.ttf
p87
sg20
g21
sbag1
(g8
g3
NtRp88
(dp89
g11
g12
sg13
S'STIXGeneral'
p90
sg15
I400
sg16
g12
sg17
g12
sg18
VC:\u005cAnaconda\u005clib\u005csite-packages\u005cmatplotlib\u005cmpl-data\u005cfonts\u005cttf\u005cSTIXGeneral.ttf
p91
sg20
g21
sbag1
(g8
g3
NtRp92
(dp93
g11
g12
sg13
S'STIXSizeThreeSym'
p94
sg15
I700
sg16
g12
sg17
g12
sg18
VC:\u005cAnaconda\u005clib\u005csite-packages\u005cmatplotlib\u005cmpl-data\u005cfonts\u005cttf\u005cSTIXSizThreeSymBol.ttf
p95
sg20
g21
sbag1
(g8
g3
NtRp96
(dp97
g11
g12
sg13
S'cmmi10'
p98
sg15
I400
sg16
g12
sg17
g12
sg18
VC:\u005cAnaconda\u005clib\u005csite-packages\u005cmatplotlib\u005cmpl-data\u005cfonts\u005cttf\u005ccmmi10.ttf
p99
sg20
g21
sbag1
(g8
g3
NtRp100
(dp101
g11
g12
sg13
S'Bitstream Vera Serif'
p102
sg15
I400
sg16
g12
sg17
g12
sg18
VC:\u005cAnaconda\u005clib\u005csite-packages\u005cmatplotlib\u005cmpl-data\u005cfonts\u005cttf\u005cVeraSe.ttf
p103
sg20
g21
sbag1
(g8
g3
NtRp104
(dp105
g11
g28
sg13
S'STIXGeneral'
p106
sg15
I700
sg16
g12
sg17
g12
sg18
VC:\u005cAnaconda\u005clib\u005csite-packages\u005cmatplotlib\u005cmpl-data\u005cfonts\u005cttf\u005cSTIXGeneralBolIta.ttf
p107
sg20
g21
sbag1
(g8
g3
NtRp108
(dp109
g11
g12
sg13
S'cmb10'
p110
sg15
I400
sg16
g12
sg17
g12
sg18
VC:\u005cAnaconda\u005clib\u005csite-packages\u005cmatplotlib\u005cmpl-data\u005cfonts\u005cttf\u005ccmb10.ttf
p111
sg20
g21
sbag1
(g8
g3
NtRp112
(dp113
g11
g12
sg13
S'STIXSizeFourSym'
p114
sg15
I700
sg16
g12
sg17
g12
sg18
VC:\u005cAnaconda\u005clib\u005csite-packages\u005cmatplotlib\u005cmpl-data\u005cfonts\u005cttf\u005cSTIXSizFourSymBol.ttf
p115
sg20
g21
sbag1
(g8
g3
NtRp116
(dp117
g11
g28
sg13
S'STIXNonUnicode'
p118
sg15
I700
sg16
g12
sg17
g12
sg18
VC:\u005cAnaconda\u005clib\u005csite-packages\u005cmatplotlib\u005cmpl-data\u005cfonts\u005cttf\u005cSTIXNonUniBolIta.ttf
p119
sg20
g21
sbag1
(g8
g3
NtRp120
(dp121
g11
g12
sg13
S'cmsy10'
p122
sg15
I400
sg16
g12
sg17
g12
sg18
VC:\u005cAnaconda\u005clib\u005csite-packages\u005cmatplotlib\u005cmpl-data\u005cfonts\u005cttf\u005ccmsy10.ttf
p123
sg20
g21
sbag1
(g8
g3
NtRp124
(dp125
g11
g12
sg13
S'STIXSizeThreeSym'
p126
sg15
I400
sg16
g12
sg17
g12
sg18
VC:\u005cAnaconda\u005clib\u005csite-packages\u005cmatplotlib\u005cmpl-data\u005cfonts\u005cttf\u005cSTIXSizThreeSymReg.ttf
p127
sg20
g21
sbag1
(g8
g3
NtRp128
(dp129
g11
g12
sg13
S'cmtt10'
p130
sg15
I400
sg16
g12
sg17
g12
sg18
VC:\u005cAnaconda\u005clib\u005csite-packages\u005cmatplotlib\u005cmpl-data\u005cfonts\u005cttf\u005ccmtt10.ttf
p131
sg20
g21
sbag1
(g8
g3
NtRp132
(dp133
g11
g12
sg13
S'STIXSizeOneSym'
p134
sg15
I700
sg16
g12
sg17
g12
sg18
VC:\u005cAnaconda\u005clib\u005csite-packages\u005cmatplotlib\u005cmpl-data\u005cfonts\u005cttf\u005cSTIXSizOneSymBol.ttf
p135
sg20
g21
sbag1
(g8
g3
NtRp136
(dp137
g11
g12
sg13
S'STIXSizeTwoSym'
p138
sg15
I700
sg16
g12
sg17
g12
sg18
VC:\u005cAnaconda\u005clib\u005csite-packages\u005cmatplotlib\u005cmpl-data\u005cfonts\u005cttf\u005cSTIXSizTwoSymBol.ttf
p139
sg20
g21
sbag1
(g8
g3
NtRp140
(dp141
g11
g28
sg13
S'STIXGeneral'
p142
sg15
I400
sg16
g12
sg17
g12
sg18
VC:\u005cAnaconda\u005clib\u005csite-packages\u005cmatplotlib\u005cmpl-data\u005cfonts\u005cttf\u005cSTIXGeneralItalic.ttf
p143
sg20
g21
sbag1
(g8
g3
NtRp144
(dp145
g11
g12
sg13
S'Bitstream Vera Sans'
p146
sg15
I700
sg16
g12
sg17
g12
sg18
VC:\u005cAnaconda\u005clib\u005csite-packages\u005cmatplotlib\u005cmpl-data\u005cfonts\u005cttf\u005cVeraBd.ttf
p147
sg20
g21
sbag1
(g8
g3
NtRp148
(dp149
g11
g12
sg13
S'cmex10'
p150
sg15
I400
sg16
g12
sg17
g12
sg18
VC:\u005cAnaconda\u005clib\u005csite-packages\u005cmatplotlib\u005cmpl-data\u005cfonts\u005cttf\u005ccmex10.ttf
p151
sg20
g21
sbag1
(g8
g3
NtRp152
(dp153
g11
g33
sg13
S'Bitstream Vera Sans Mono'
p154
sg15
I400
sg16
g12
sg17
g12
sg18
VC:\u005cAnaconda\u005clib\u005csite-packages\u005cmatplotlib\u005cmpl-data\u005cfonts\u005cttf\u005cVeraMoIt.ttf
p155
sg20
g21
sbag1
(g8
g3
NtRp156
(dp157
g11
g12
sg13
S'Courier New'
p158
sg15
I400
sg16
g12
sg17
g12
sg18
VC:\u005cWindows\u005cFonts\u005ccour.ttf
p159
sg20
g21
sbag1
(g8
g3
NtRp160
(dp161
g11
g28
sg13
S'Arial'
p162
sg15
I400
sg16
g12
sg17
g12
sg18
VC:\u005cWindows\u005cFonts\u005cariali.ttf
p163
sg20
g21
sbag1
(g8
g3
NtRp164
(dp165
g11
g28
sg13
S'Myriad Arabic'
p166
sg15
I400
sg16
g12
sg17
g12
sg18
VC:\u005cWindows\u005cFonts\u005cMyriadArabic-It.otf
p167
sg20
g21
sbag1
(g8
g3
NtRp168
(dp169
g11
g12
sg13
S'Footlight MT Light'
p170
sg15
I200
sg16
g12
sg17
g12
sg18
Vc:\u005cwindows\u005cfonts\u005cftltlt.ttf
p171
sg20
g21
sbag1
(g8
g3
NtRp172
(dp173
g11
g28
sg13
S'Browallia New'
p174
sg15
I400
sg16
g12
sg17
g12
sg18
Vc:\u005cwindows\u005cfonts\u005cbrowai.ttf
p175
sg20
g21
sbag1
(g8
g3
NtRp176
(dp177
g11
g28
sg13
S'Adobe Hebrew'
p178
sg15
I700
sg16
g12
sg17
g12
sg18
VC:\u005cWindows\u005cFonts\u005cAdobeHebrew-BoldItalic.otf
p179
sg20
g21
sbag1
(g8
g3
NtRp180
(dp181
g11
g12
sg13
S'Cambria'
p182
sg15
I700
sg16
g12
sg17
g12
sg18
Vc:\u005cwindows\u005cfonts\u005ccambriab.ttf
p183
sg20
g21
sbag1
(g8
g3
NtRp184
(dp185
g11
g12
sg13
S'Cordia New'
p186
sg15
I700
sg16
g12
sg17
g12
sg18
Vc:\u005cwindows\u005cfonts\u005ccordiab.ttf
p187
sg20
g21
sbag1
(g8
g3
NtRp188
(dp189
g11
g28
sg13
S'Palatino Linotype'
p190
sg15
I700
sg16
g12
sg17
g12
sg18
VC:\u005cWindows\u005cFonts\u005cpalabi.ttf
p191
sg20
g21
sbag1
(g8
g3
NtRp192
(dp193
g11
g28
sg13
S'JasmineUPC'
p194
sg15
I400
sg16
g12
sg17
g12
sg18
Vc:\u005cwindows\u005cfonts\u005cupcji.ttf
p195
sg20
g21
sbag1
(g8
g3
NtRp196
(dp197
g11
g12
sg13
S'Microsoft Tai Le'
p198
sg15
I700
sg16
g12
sg17
g12
sg18
VC:\u005cWindows\u005cFonts\u005ctaileb.ttf
p199
sg20
g21
sbag1
(g8
g3
NtRp200
(dp201
g11
g28
sg13
S'Myriad Pro'
p202
sg15
I400
sg16
Vcondensed
p203
sg17
g12
sg18
VC:\u005cWindows\u005cFonts\u005cMyriadPro-CondIt.otf
p204
sg20
g21
sbag1
(g8
g3
NtRp205
(dp206
g11
g12
sg13
S'Harrington'
p207
sg15
I400
sg16
g12
sg17
g12
sg18
VC:\u005cWindows\u005cFonts\u005cHARNGTON.TTF
p208
sg20
g21
sbag1
(g8
g3
NtRp209
(dp210
g11
g12
sg13
S'Myriad Hebrew'
p211
sg15
I700
sg16
g12
sg17
g12
sg18
VC:\u005cWindows\u005cFonts\u005cMyriadHebrew-Bold.otf
p212
sg20
g21
sbag1
(g8
g3
NtRp213
(dp214
g11
g12
sg13
S'Trebuchet MS'
p215
sg15
I700
sg16
g12
sg17
g12
sg18
Vc:\u005cwindows\u005cfonts\u005ctrebucbd.ttf
p216
sg20
g21
sbag1
(g8
g3
NtRp217
(dp218
g11
g12
sg13
S'Segoe Marker'
p219
sg15
I400
sg16
g12
sg17
g12
sg18
Vc:\u005cwindows\u005cfonts\u005csegoemarker.ttf
p220
sg20
g21
sbag1
(g8
g3
NtRp221
(dp222
g11
g28
sg13
S'Bell MT'
p223
sg15
I400
sg16
g12
sg17
g12
sg18
Vc:\u005cwindows\u005cfonts\u005cbelli.ttf
p224
sg20
g21
sbag1
(g8
g3
NtRp225
(dp226
g11
g28
sg13
S'Bodoni MT'
p227
sg15
I900
sg16
g12
sg17
g12
sg18
Vc:\u005cwindows\u005cfonts\u005cbod_blai.ttf
p228
sg20
g21
sbag1
(g8
g3
NtRp229
(dp230
g11
g12
sg13
S'Copperplate Gothic Bold'
p231
sg15
I700
sg16
g12
sg17
g12
sg18
VC:\u005cWindows\u005cFonts\u005cCOPRGTB.TTF
p232
sg20
g21
sbag1
(g8
g3
NtRp233
(dp234
g11
g28
sg13
S'Elephant'
p235
sg15
I400
sg16
g12
sg17
g12
sg18
VC:\u005cWindows\u005cFonts\u005cELEPHNTI.TTF
p236
sg20
g21
sbag1
(g8
g3
NtRp237
(dp238
g11
g12
sg13
S'BrowalliaUPC'
p239
sg15
I400
sg16
g12
sg17
g12
sg18
Vc:\u005cwindows\u005cfonts\u005cbrowau.ttf
p240
sg20
g21
sbag1
(g8
g3
NtRp241
(dp242
g11
g12
sg13
S'Myriad Pro'
p243
sg15
I700
sg16
g203
sg17
g12
sg18
VC:\u005cWindows\u005cFonts\u005cMyriadPro-BoldCond.otf
p244
sg20
g21
sbag1
(g8
g3
NtRp245
(dp246
g11
g12
sg13
S'Yu Mincho'
p247
sg15
I700
sg16
g12
sg17
g12
sg18
VC:\u005cWindows\u005cFonts\u005cyumindb.ttf
p248
sg20
g21
sbag1
(g8
g3
NtRp249
(dp250
g11
g12
sg13
S'Adobe Devanagari'
p251
sg15
I400
sg16
g12
sg17
g12
sg18
VC:\u005cWindows\u005cFonts\u005cAdobeDevanagari-Regular.otf
p252
sg20
g21
sbag1
(g8
g3
NtRp253
(dp254
g11
g28
sg13
S'Segoe UI'
p255
sg15
I400
sg16
g12
sg17
g12
sg18
VC:\u005cWindows\u005cFonts\u005cseguibli.ttf
p256
sg20
g21
sbag1
(g8
g3
NtRp257
(dp258
g11
g12
sg13
S'Adobe Hebrew'
p259
sg15
I400
sg16
g12
sg17
g12
sg18
VC:\u005cWindows\u005cFonts\u005cAdobeHebrew-Regular.otf
p260
sg20
g21
sbag1
(g8
g3
NtRp261
(dp262
g11
g28
sg13
S'Chaparral Pro'
p263
sg15
I200
sg16
g12
sg17
g12
sg18
Vc:\u005cwindows\u005cfonts\u005cchaparralpro-lightit.otf
p264
sg20
g21
sbag1
(g8
g3
NtRp265
(dp266
g11
g12
sg13
S'KaiTi'
p267
sg15
I400
sg16
g12
sg17
g12
sg18
Vc:\u005cwindows\u005cfonts\u005csimkai.ttf
p268
sg20
g21
sbag1
(g8
g3
NtRp269
(dp270
g11
g12
sg13
S'JasmineUPC'
p271
sg15
I700
sg16
g12
sg17
g12
sg18
VC:\u005cWindows\u005cFonts\u005cupcjb.ttf
p272
sg20
g21
sbag1
(g8
g3
NtRp273
(dp274
g11
g12
sg13
S'Charlemagne Std'
p275
sg15
I700
sg16
g12
sg17
g12
sg18
Vc:\u005cwindows\u005cfonts\u005ccharlemagnestd-bold.otf
p276
sg20
g21
sbag1
(g8
g3
NtRp277
(dp278
g11
g28
sg13
S'Cooper Std'
p279
sg15
I900
sg16
g12
sg17
g12
sg18
Vc:\u005cwindows\u005cfonts\u005ccooperblackstd-italic.otf
p280
sg20
g21
sbag1
(g8
g3
NtRp281
(dp282
g11
g12
sg13
S'Adobe Caslon Pro'
p283
sg15
I700
sg16
g12
sg17
g12
sg18
Vc:\u005cwindows\u005cfonts\u005cacaslonpro-bold.otf
p284
sg20
g21
sbag1
(g8
g3
NtRp285
(dp286
g11
g12
sg13
S'Franklin Gothic Demi'
p287
sg15
I600
sg16
g12
sg17
g12
sg18
Vc:\u005cwindows\u005cfonts\u005cfradm.ttf
p288
sg20
g21
sbag1
(g8
g3
NtRp289
(dp290
g11
g28
sg13
S'Trebuchet MS'
p291
sg15
I700
sg16
g12
sg17
g12
sg18
Vc:\u005cwindows\u005cfonts\u005ctrebucbi.ttf
p292
sg20
g21
sbag1
(g8
g3
NtRp293
(dp294
g11
g12
sg13
S'Monotype Corsiva'
p295
sg15
I400
sg16
g12
sg17
g12
sg18
Vc:\u005cwindows\u005cfonts\u005cmtcorsva.ttf
p296
sg20
g21
sbag1
(g8
g3
NtRp297
(dp298
g11
g28
sg13
S'Segoe UI'
p299
sg15
I700
sg16
g12
sg17
g12
sg18
Vc:\u005cwindows\u005cfonts\u005csegoeuiz.ttf
p300
sg20
g21
sbag1
(g8
g3
NtRp301
(dp302
g11
g12
sg13
S'Bodoni MT'
p303
sg15
I400
sg16
g203
sg17
g12
sg18
Vc:\u005cwindows\u005cfonts\u005cbod_cr.ttf
p304
sg20
g21
sbag1
(g8
g3
NtRp305
(dp306
g11
g12
sg13
S'Urdu Typesetting'
p307
sg15
I400
sg16
g12
sg17
g12
sg18
Vc:\u005cwindows\u005cfonts\u005curdtype.ttf
p308
sg20
g21
sbag1
(g8
g3
NtRp309
(dp310
g11
g28
sg13
S'Minion Pro'
p311
sg15
I700
sg16
g203
sg17
g12
sg18
VC:\u005cWindows\u005cFonts\u005cMinionPro-BoldCnIt.otf
p312
sg20
g21
sbag1
(g8
g3
NtRp313
(dp314
g11
g28
sg13
S'Bodoni MT'
p315
sg15
I700
sg16
g12
sg17
g12
sg18
Vc:\u005cwindows\u005cfonts\u005cbod_bi.ttf
p316
sg20
g21
sbag1
(g8
g3
NtRp317
(dp318
g11
g12
sg13
S'Myriad Arabic'
p319
sg15
I400
sg16
g12
sg17
g12
sg18
VC:\u005cWindows\u005cFonts\u005cMyriadArabic-Regular.otf
p320
sg20
g21
sbag1
(g8
g3
NtRp321
(dp322
g11
g28
sg13
S'Gill Sans MT'
p323
sg15
I400
sg16
g12
sg17
g12
sg18
Vc:\u005cwindows\u005cfonts\u005cgili____.ttf
p324
sg20
g21
sbag1
(g8
g3
NtRp325
(dp326
g11
g28
sg13
S'BrowalliaUPC'
p327
sg15
I700
sg16
g12
sg17
g12
sg18
Vc:\u005cwindows\u005cfonts\u005cbrowauz.ttf
p328
sg20
g21
sbag1
(g8
g3
NtRp329
(dp330
g11
g12
sg13
S'Malgun Gothic'
p331
sg15
I700
sg16
g12
sg17
g12
sg18
VC:\u005cWindows\u005cFonts\u005cmalgunbd.ttf
p332
sg20
g21
sbag1
(g8
g3
NtRp333
(dp334
g11
g12
sg13
S'Imprint MT Shadow'
p335
sg15
I400
sg16
g12
sg17
g12
sg18
Vc:\u005cwindows\u005cfonts\u005cimprisha.ttf
p336
sg20
g21
sbag1
(g8
g3
NtRp337
(dp338
g11
g12
sg13
S'DokChampa'
p339
sg15
I400
sg16
g12
sg17
g12
sg18
VC:\u005cWindows\u005cFonts\u005cdokchamp.ttf
p340
sg20
g21
sbag1
(g8
g3
NtRp341
(dp342
g11
g12
sg13
S'Curlz MT'
p343
sg15
I400
sg16
g12
sg17
g12
sg18
VC:\u005cWindows\u005cFonts\u005cCURLZ___.TTF
p344
sg20
g21
sbag1
(g8
g3
NtRp345
(dp346
g11
g28
sg13
S'Segoe UI'
p347
sg15
I400
sg16
g12
sg17
g12
sg18
Vc:\u005cwindows\u005cfonts\u005cseguisbi.ttf
p348
sg20
g21
sbag1
(g8
g3
NtRp349
(dp350
g11
g12
sg13
S'Khmer UI'
p351
sg15
I700
sg16
g12
sg17
g12
sg18
Vc:\u005cwindows\u005cfonts\u005ckhmeruib.ttf
p352
sg20
g21
sbag1
(g8
g3
NtRp353
(dp354
g11
g12
sg13
S'Tw Cen MT Condensed'
p355
sg15
I700
sg16
g203
sg17
g12
sg18
Vc:\u005cwindows\u005cfonts\u005ctccb____.ttf
p356
sg20
g21
sbag1
(g8
g3
NtRp357
(dp358
g11
g28
sg13
S'Letter Gothic Std'
p359
sg15
I700
sg16
g12
sg17
g12
sg18
VC:\u005cWindows\u005cFonts\u005cLetterGothicStd-BoldSlanted.otf
p360
sg20
g21
sbag1
(g8
g3
NtRp361
(dp362
g11
g12
sg13
S'Simplified Arabic'
p363
sg15
I400
sg16
g12
sg17
g12
sg18
Vc:\u005cwindows\u005cfonts\u005csimpo.ttf
p364
sg20
g21
sbag1
(g8
g3
NtRp365
(dp366
g11
g12
sg13
S'Arabic Typesetting'
p367
sg15
I400
sg16
g12
sg17
g12
sg18
Vc:\u005cwindows\u005cfonts\u005carabtype.ttf
p368
sg20
g21
sbag1
(g8
g3
NtRp369
(dp370
g11
g12
sg13
S'Kartika'
p371
sg15
I700
sg16
g12
sg17
g12
sg18
VC:\u005cWindows\u005cFonts\u005ckartikab.ttf
p372
sg20
g21
sbag1
(g8
g3
NtRp373
(dp374
g11
g12
sg13
S'Khmer UI'
p375
sg15
I400
sg16
g12
sg17
g12
sg18
Vc:\u005cwindows\u005cfonts\u005ckhmerui.ttf
p376
sg20
g21
sbag1
(g8
g3
NtRp377
(dp378
g11
g12
sg13
S'Segoe UI'
p379
sg15
I400
sg16
g12
sg17
g12
sg18
Vc:\u005cwindows\u005cfonts\u005cseguisb.ttf
p380
sg20
g21
sbag1
(g8
g3
NtRp381
(dp382
g11
g12
sg13
S'Kalinga'
p383
sg15
I400
sg16
g12
sg17
g12
sg18
VC:\u005cWindows\u005cFonts\u005ckalinga.ttf
p384
sg20
g21
sbag1
(g8
g3
NtRp385
(dp386
g11
g12
sg13
S'Kokila'
p387
sg15
I700
sg16
g12
sg17
g12
sg18
VC:\u005cWindows\u005cFonts\u005ckokilab.ttf
p388
sg20
g21
sbag1
(g8
g3
NtRp389
(dp390
g11
g12
sg13
S'Franklin Gothic Heavy'
p391
sg15
I800
sg16
g12
sg17
g12
sg18
VC:\u005cWindows\u005cFonts\u005cFRAHV.TTF
p392
sg20
g21
sbag1
(g8
g3
NtRp393
(dp394
g11
g12
sg13
S'Calibri'
p395
sg15
I200
sg16
g12
sg17
g12
sg18
VC:\u005cWindows\u005cFonts\u005ccalibril.ttf
p396
sg20
g21
sbag1
(g8
g3
NtRp397
(dp398
g11
g12
sg13
S'Gautami'
p399
sg15
I700
sg16
g12
sg17
g12
sg18
VC:\u005cWindows\u005cFonts\u005cgautamib.ttf
p400
sg20
g21
sbag1
(g8
g3
NtRp401
(dp402
g11
g12
sg13
S'Euphemia'
p403
sg15
I400
sg16
g12
sg17
g12
sg18
VC:\u005cWindows\u005cFonts\u005ceuphemia.ttf
p404
sg20
g21
sbag1
(g8
g3
NtRp405
(dp406
g11
g28
sg13
S'Georgia'
p407
sg15
I400
sg16
g12
sg17
g12
sg18
VC:\u005cWindows\u005cFonts\u005cgeorgiai.ttf
p408
sg20
g21
sbag1
(g8
g3
NtRp409
(dp410
g11
g12
sg13
S'Leelawadee'
p411
sg15
I700
sg16
g12
sg17
g12
sg18
VC:\u005cWindows\u005cFonts\u005cleelawdb.ttf
p412
sg20
g21
sbag1
(g8
g3
NtRp413
(dp414
g11
g12
sg13
S'Juice ITC'
p415
sg15
I400
sg16
g12
sg17
g12
sg18
VC:\u005cWindows\u005cFonts\u005cJUICE___.TTF
p416
sg20
g21
sbag1
(g8
g3
NtRp417
(dp418
g11
g12
sg13
S'Candara'
p419
sg15
I700
sg16
g12
sg17
g12
sg18
VC:\u005cWindows\u005cFonts\u005cCandarab.ttf
p420
sg20
g21
sbag1
(g8
g3
NtRp421
(dp422
g11
g12
sg13
S'Narkisim'
p423
sg15
I400
sg16
g12
sg17
g12
sg18
Vc:\u005cwindows\u005cfonts\u005cnrkis.ttf
p424
sg20
g21
sbag1
(g8
g3
NtRp425
(dp426
g11
g12
sg13
S'Adobe Devanagari'
p427
sg15
I700
sg16
g12
sg17
g12
sg18
Vc:\u005cwindows\u005cfonts\u005cadobedevanagari-bold.otf
p428
sg20
g21
sbag1
(g8
g3
NtRp429
(dp430
g11
g12
sg13
S'Onyx'
p431
sg15
I400
sg16
g12
sg17
g12
sg18
VC:\u005cWindows\u005cFonts\u005cONYX.TTF
p432
sg20
g21
sbag1
(g8
g3
NtRp433
(dp434
g11
g12
sg13
S'Baskerville Old Face'
p435
sg15
I400
sg16
g12
sg17
g12
sg18
VC:\u005cWindows\u005cFonts\u005cBASKVILL.TTF
p436
sg20
g21
sbag1
(g8
g3
NtRp437
(dp438
g11
g33
sg13
S'Lucida Sans Typewriter'
p439
sg15
I400
sg16
g12
sg17
g12
sg18
VC:\u005cWindows\u005cFonts\u005cLTYPEO.TTF
p440
sg20
g21
sbag1
(g8
g3
NtRp441
(dp442
g11
g12
sg13
S'Microsoft Himalaya'
p443
sg15
I400
sg16
g12
sg17
g12
sg18
VC:\u005cWindows\u005cFonts\u005chimalaya.ttf
p444
sg20
g21
sbag1
(g8
g3
NtRp445
(dp446
g11
g12
sg13
S'Tahoma'
p447
sg15
I700
sg16
g12
sg17
g12
sg18
Vc:\u005cwindows\u005cfonts\u005ctahomabd.ttf
p448
sg20
g21
sbag1
(g8
g3
NtRp449
(dp450
g11
g12
sg13
S'Kozuka Mincho Pro'
p451
sg15
I400
sg16
g12
sg17
g12
sg18
Vc:\u005cwindows\u005cfonts\u005ckozminpro-medium.otf
p452
sg20
g21
sbag1
(g8
g3
NtRp453
(dp454
g11
g28
sg13
S'Californian FB'
p455
sg15
I400
sg16
g12
sg17
g12
sg18
Vc:\u005cwindows\u005cfonts\u005ccalifi.ttf
p456
sg20
g21
sbag1
(g8
g3
NtRp457
(dp458
g11
g12
sg13
S'OCR A Std'
p459
sg15
I400
sg16
g12
sg17
g12
sg18
VC:\u005cWindows\u005cFonts\u005cOCRAStd.otf
p460
sg20
g21
sbag1
(g8
g3
NtRp461
(dp462
g11
g28
sg13
S'Adobe Garamond Pro'
p463
sg15
I700
sg16
g12
sg17
g12
sg18
VC:\u005cWindows\u005cFonts\u005cAGaramondPro-BoldItalic.otf
p464
sg20
g21
sbag1
(g8
g3
NtRp465
(dp466
g11
g28
sg13
S'Minion Pro'
p467
sg15
I400
sg16
g12
sg17
g12
sg18
VC:\u005cWindows\u005cFonts\u005cMinionPro-It.otf
p468
sg20
g21
sbag1
(g8
g3
NtRp469
(dp470
g11
g12
sg13
S'Consolas'
p471
sg15
I400
sg16
g12
sg17
g12
sg18
Vc:\u005cwindows\u005cfonts\u005cconsola.ttf
p472
sg20
g21
sbag1
(g8
g3
NtRp473
(dp474
g11
g28
sg13
S'Gill Sans MT'
p475
sg15
I700
sg16
g12
sg17
g12
sg18
Vc:\u005cwindows\u005cfonts\u005cgilbi___.ttf
p476
sg20
g21
sbag1
(g8
g3
NtRp477
(dp478
g11
g12
sg13
S'Arial'
p479
sg15
I400
sg16
g12
sg17
g12
sg18
VC:\u005cWindows\u005cFonts\u005carial.ttf
p480
sg20
g21
sbag1
(g8
g3
NtRp481
(dp482
g11
g12
sg13
S'Levenim MT'
p483
sg15
I400
sg16
g12
sg17
g12
sg18
VC:\u005cWindows\u005cFonts\u005clvnm.ttf
p484
sg20
g21
sbag1
(g8
g3
NtRp485
(dp486
g11
g28
sg13
S'Angsana New'
p487
sg15
I400
sg16
g12
sg17
g12
sg18
VC:\u005cWindows\u005cFonts\u005cangsai.ttf
p488
sg20
g21
sbag1
(g8
g3
NtRp489
(dp490
g11
g12
sg13
S'FreesiaUPC'
p491
sg15
I700
sg16
g12
sg17
g12
sg18
VC:\u005cWindows\u005cFonts\u005cupcfb.ttf
p492
sg20
g21
sbag1
(g8
g3
NtRp493
(dp494
g11
g12
sg13
S'Arial'
p495
sg15
I700
sg16
g12
sg17
g12
sg18
Vc:\u005cwindows\u005cfonts\u005carialbd.ttf
p496
sg20
g21
sbag1
(g8
g3
NtRp497
(dp498
g11
g12
sg13
S'Sakkal Majalla'
p499
sg15
I400
sg16
g12
sg17
g12
sg18
VC:\u005cWindows\u005cFonts\u005cmajalla.ttf
p500
sg20
g21
sbag1
(g8
g3
NtRp501
(dp502
g11
g12
sg13
S'Yu Mincho'
p503
sg15
I400
sg16
g12
sg17
g12
sg18
VC:\u005cWindows\u005cFonts\u005cyuminl.ttf
p504
sg20
g21
sbag1
(g8
g3
NtRp505
(dp506
g11
g12
sg13
S'Leelawadee UI'
p507
sg15
I400
sg16
g12
sg17
g12
sg18
VC:\u005cWindows\u005cFonts\u005cLeelawUI.ttf
p508
sg20
g21
sbag1
(g8
g3
NtRp509
(dp510
g11
g12
sg13
S'Adobe Hebrew'
p511
sg15
I700
sg16
g12
sg17
g12
sg18
Vc:\u005cwindows\u005cfonts\u005cadobehebrew-bold.otf
p512
sg20
g21
sbag1
(g8
g3
NtRp513
(dp514
g11
g28
sg13
S'Verdana'
p515
sg15
I700
sg16
g12
sg17
g12
sg18
Vc:\u005cwindows\u005cfonts\u005cverdanaz.ttf
p516
sg20
g21
sbag1
(g8
g3
NtRp517
(dp518
g11
g12
sg13
S'Lucida Fax'
p519
sg15
I700
sg16
g12
sg17
g12
sg18
Vc:\u005cwindows\u005cfonts\u005clfaxd.ttf
p520
sg20
g21
sbag1
(g8
g3
NtRp521
(dp522
g11
g28
sg13
S'Cambria'
p523
sg15
I700
sg16
g12
sg17
g12
sg18
VC:\u005cWindows\u005cFonts\u005ccambriaz.ttf
p524
sg20
g21
sbag1
(g8
g3
NtRp525
(dp526
g11
g12
sg13
S'Kozuka Gothic Pro'
p527
sg15
I700
sg16
g12
sg17
g12
sg18
VC:\u005cWindows\u005cFonts\u005cKozGoPro-Bold.otf
p528
sg20
g21
sbag1
(g8
g3
NtRp529
(dp530
g11
g28
sg13
S'Constantia'
p531
sg15
I700
sg16
g12
sg17
g12
sg18
VC:\u005cWindows\u005cFonts\u005cconstanz.ttf
p532
sg20
g21
sbag1
(g8
g3
NtRp533
(dp534
g11
g28
sg13
S'IrisUPC'
p535
sg15
I700
sg16
g12
sg17
g12
sg18
VC:\u005cWindows\u005cFonts\u005cupcibi.ttf
p536
sg20
g21
sbag1
(g8
g3
NtRp537
(dp538
g11
g12
sg13
S'Maiandra GD'
p539
sg15
I400
sg16
g12
sg17
g12
sg18
Vc:\u005cwindows\u005cfonts\u005cmaian.ttf
p540
sg20
g21
sbag1
(g8
g3
NtRp541
(dp542
g11
g12
sg13
S'Letter Gothic Std'
p543
sg15
I500
sg16
g12
sg17
g12
sg18
VC:\u005cWindows\u005cFonts\u005cLetterGothicStd.otf
p544
sg20
g21
sbag1
(g8
g3
NtRp545
(dp546
g11
g28
sg13
S'Franklin Gothic Book'
p547
sg15
I400
sg16
g12
sg17
g12
sg18
Vc:\u005cwindows\u005cfonts\u005cfrabkit.ttf
p548
sg20
g21
sbag1
(g8
g3
NtRp549
(dp550
g11
g12
sg13
S'Birch Std'
p551
sg15
I400
sg16
g12
sg17
g12
sg18
VC:\u005cWindows\u005cFonts\u005cBirchStd.otf
p552
sg20
g21
sbag1
(g8
g3
NtRp553
(dp554
g11
g12
sg13
S'MV Boli'
p555
sg15
I400
sg16
g12
sg17
g12
sg18
VC:\u005cWindows\u005cFonts\u005cmvboli.ttf
p556
sg20
g21
sbag1
(g8
g3
NtRp557
(dp558
g11
g12
sg13
S'Mesquite Std'
p559
sg15
I500
sg16
g12
sg17
g12
sg18
VC:\u005cWindows\u005cFonts\u005cMesquiteStd.otf
p560
sg20
g21
sbag1
(g8
g3
NtRp561
(dp562
g11
g12
sg13
S'Segoe UI'
p563
sg15
I400
sg16
g12
sg17
g12
sg18
Vc:\u005cwindows\u005cfonts\u005csegoeui.ttf
p564
sg20
g21
sbag1
(g8
g3
NtRp565
(dp566
g11
g12
sg13
S'Levenim MT'
p567
sg15
I700
sg16
g12
sg17
g12
sg18
VC:\u005cWindows\u005cFonts\u005clvnmbd.ttf
p568
sg20
g21
sbag1
(g8
g3
NtRp569
(dp570
g11
g12
sg13
S'Lucida Sans Typewriter'
p571
sg15
I700
sg16
g12
sg17
g12
sg18
VC:\u005cWindows\u005cFonts\u005cLTYPEB.TTF
p572
sg20
g21
sbag1
(g8
g3
NtRp573
(dp574
g11
g12
sg13
S'Nirmala UI'
p575
sg15
I200
sg16
g12
sg17
g12
sg18
VC:\u005cWindows\u005cFonts\u005cNirmalaS.ttf
p576
sg20
g21
sbag1
(g8
g3
NtRp577
(dp578
g11
g28
sg13
S'AngsanaUPC'
p579
sg15
I400
sg16
g12
sg17
g12
sg18
Vc:\u005cwindows\u005cfonts\u005cangsaui.ttf
p580
sg20
g21
sbag1
(g8
g3
NtRp581
(dp582
g11
g12
sg13
S'Kozuka Mincho Pro'
p583
sg15
I700
sg16
g12
sg17
g12
sg18
Vc:\u005cwindows\u005cfonts\u005ckozminpro-heavy.otf
p584
sg20
g21
sbag1
(g8
g3
NtRp585
(dp586
g11
g12
sg13
S'Calisto MT'
p587
sg15
I700
sg16
g12
sg17
g12
sg18
VC:\u005cWindows\u005cFonts\u005cCALISTB.TTF
p588
sg20
g21
sbag1
(g8
g3
NtRp589
(dp590
g11
g12
sg13
S'Leelawadee'
p591
sg15
I400
sg16
g12
sg17
g12
sg18
VC:\u005cWindows\u005cFonts\u005cleelawad.ttf
p592
sg20
g21
sbag1
(g8
g3
NtRp593
(dp594
g11
g28
sg13
S'Book Antiqua'
p595
sg15
I700
sg16
g12
sg17
g12
sg18
Vc:\u005cwindows\u005cfonts\u005cantquabi.ttf
p596
sg20
g21
sbag1
(g8
g3
NtRp597
(dp598
g11
g28
sg13
S'Tw Cen MT'
p599
sg15
I400
sg16
g12
sg17
g12
sg18
VC:\u005cWindows\u005cFonts\u005cTCMI____.TTF
p600
sg20
g21
sbag1
(g8
g3
NtRp601
(dp602
g11
g28
sg13
S'High Tower Text'
p603
sg15
I400
sg16
g12
sg17
g12
sg18
VC:\u005cWindows\u005cFonts\u005cHTOWERTI.TTF
p604
sg20
g21
sbag1
(g8
g3
NtRp605
(dp606
g11
g12
sg13
S'Lucida Sans'
p607
sg15
I400
sg16
g12
sg17
g12
sg18
VC:\u005cWindows\u005cFonts\u005cLSANS.TTF
p608
sg20
g21
sbag1
(g8
g3
NtRp609
(dp610
g11
g28
sg13
S'Comic Sans MS'
p611
sg15
I400
sg16
g12
sg17
g12
sg18
VC:\u005cWindows\u005cFonts\u005ccomici.ttf
p612
sg20
g21
sbag1
(g8
g3
NtRp613
(dp614
g11
g12
sg13
S'Marlett'
p615
sg15
I400
sg16
g12
sg17
g12
sg18
VC:\u005cWindows\u005cFonts\u005cmarlett.ttf
p616
sg20
g21
sbag1
(g8
g3
NtRp617
(dp618
g11
g12
sg13
S'Browallia New'
p619
sg15
I700
sg16
g12
sg17
g12
sg18
Vc:\u005cwindows\u005cfonts\u005cbrowab.ttf
p620
sg20
g21
sbag1
(g8
g3
NtRp621
(dp622
g11
g12
sg13
S'Corbel'
p623
sg15
I700
sg16
g12
sg17
g12
sg18
Vc:\u005cwindows\u005cfonts\u005ccorbelb.ttf
p624
sg20
g21
sbag1
(g8
g3
NtRp625
(dp626
g11
g12
sg13
S'Kozuka Mincho Pro'
p627
sg15
I400
sg16
g12
sg17
g12
sg18
Vc:\u005cwindows\u005cfonts\u005ckozminpro-extralight.otf
p628
sg20
g21
sbag1
(g8
g3
NtRp629
(dp630
g11
g12
sg13
S'Garamond'
p631
sg15
I400
sg16
g12
sg17
g12
sg18
Vc:\u005cwindows\u005cfonts\u005cgara.ttf
p632
sg20
g21
sbag1
(g8
g3
NtRp633
(dp634
g11
g12
sg13
S'Simplified Arabic'
p635
sg15
I700
sg16
g12
sg17
g12
sg18
Vc:\u005cwindows\u005cfonts\u005csimpbdo.ttf
p636
sg20
g21
sbag1
(g8
g3
NtRp637
(dp638
g11
g12
sg13
S'Perpetua'
p639
sg15
I400
sg16
g12
sg17
g12
sg18
VC:\u005cWindows\u005cFonts\u005cPER_____.TTF
p640
sg20
g21
sbag1
(g8
g3
NtRp641
(dp642
g11
g12
sg13
S'Franklin Gothic Book'
p643
sg15
I400
sg16
g12
sg17
g12
sg18
VC:\u005cWindows\u005cFonts\u005cFRABK.TTF
p644
sg20
g21
sbag1
(g8
g3
NtRp645
(dp646
g11
g12
sg13
S'Tekton Pro'
p647
sg15
I700
sg16
g12
sg17
g12
sg18
VC:\u005cWindows\u005cFonts\u005cTektonPro-Bold.otf
p648
sg20
g21
sbag1
(g8
g3
NtRp649
(dp650
g11
g28
sg13
S'Nueva Std'
p651
sg15
I700
sg16
g203
sg17
g12
sg18
VC:\u005cWindows\u005cFonts\u005cNuevaStd-BoldCondItalic.otf
p652
sg20
g21
sbag1
(g8
g3
NtRp653
(dp654
g11
g12
sg13
S'Informal Roman'
p655
sg15
I500
sg16
g12
sg17
g12
sg18
Vc:\u005cwindows\u005cfonts\u005cinfroman.ttf
p656
sg20
g21
sbag1
(g8
g3
NtRp657
(dp658
g11
g12
sg13
S'Stencil Std'
p659
sg15
I700
sg16
g12
sg17
g12
sg18
VC:\u005cWindows\u005cFonts\u005cStencilStd.otf
p660
sg20
g21
sbag1
(g8
g3
NtRp661
(dp662
g11
g12
sg13
S'Kozuka Gothic Pr6N'
p663
sg15
I400
sg16
g12
sg17
g12
sg18
VC:\u005cWindows\u005cFonts\u005cKozGoPr6N-Regular.otf
p664
sg20
g21
sbag1
(g8
g3
NtRp665
(dp666
g11
g12
sg13
S'LilyUPC'
p667
sg15
I400
sg16
g12
sg17
g12
sg18
VC:\u005cWindows\u005cFonts\u005cupcll.ttf
p668
sg20
g21
sbag1
(g8
g3
NtRp669
(dp670
g11
g12
sg13
S'Agency FB'
p671
sg15
I700
sg16
g12
sg17
g12
sg18
Vc:\u005cwindows\u005cfonts\u005cagencyb.ttf
p672
sg20
g21
sbag1
(g8
g3
NtRp673
(dp674
g11
g12
sg13
S'Kristen ITC'
p675
sg15
I400
sg16
g12
sg17
g12
sg18
VC:\u005cWindows\u005cFonts\u005cITCKRIST.TTF
p676
sg20
g21
sbag1
(g8
g3
NtRp677
(dp678
g11
g28
sg13
S'FreesiaUPC'
p679
sg15
I700
sg16
g12
sg17
g12
sg18
VC:\u005cWindows\u005cFonts\u005cupcfbi.ttf
p680
sg20
g21
sbag1
(g8
g3
NtRp681
(dp682
g11
g12
sg13
S'Arial Rounded MT Bold'
p683
sg15
I700
sg16
g12
sg17
g12
sg18
VC:\u005cWindows\u005cFonts\u005cARLRDBD.TTF
p684
sg20
g21
sbag1
(g8
g3
NtRp685
(dp686
g11
g12
sg13
S'Nirmala UI'
p687
sg15
I400
sg16
g12
sg17
g12
sg18
Vc:\u005cwindows\u005cfonts\u005cnirmala.ttf
p688
sg20
g21
sbag1
(g8
g3
NtRp689
(dp690
g11
g12
sg13
S'Cooper Black'
p691
sg15
I900
sg16
g12
sg17
g12
sg18
Vc:\u005cwindows\u005cfonts\u005ccoopbl.ttf
p692
sg20
g21
sbag1
(g8
g3
NtRp693
(dp694
g11
g12
sg13
S'Nueva Std'
p695
sg15
I700
sg16
g203
sg17
g12
sg18
VC:\u005cWindows\u005cFonts\u005cNuevaStd-BoldCond.otf
p696
sg20
g21
sbag1
(g8
g3
NtRp697
(dp698
g11
g12
sg13
S'Kozuka Gothic Pr6N'
p699
sg15
I400
sg16
g12
sg17
g12
sg18
Vc:\u005cwindows\u005cfonts\u005ckozgopr6n-extralight.otf
p700
sg20
g21
sbag1
(g8
g3
NtRp701
(dp702
g11
g12
sg13
S'Adobe Myungjo Std'
p703
sg15
I400
sg16
g12
sg17
g12
sg18
Vc:\u005cwindows\u005cfonts\u005cadobemyungjostd-medium.otf
p704
sg20
g21
sbag1
(g8
g3
NtRp705
(dp706
g11
g12
sg13
S'Adobe Song Std'
p707
sg15
I400
sg16
g12
sg17
g12
sg18
Vc:\u005cwindows\u005cfonts\u005cadobesongstd-light.otf
p708
sg20
g21
sbag1
(g8
g3
NtRp709
(dp710
g11
g12
sg13
S'Segoe UI Emoji'
p711
sg15
I400
sg16
g12
sg17
g12
sg18
Vc:\u005cwindows\u005cfonts\u005cseguiemj.ttf
p712
sg20
g21
sbag1
(g8
g3
NtRp713
(dp714
g11
g33
sg13
S'Lucida Sans Typewriter'
p715
sg15
I700
sg16
g12
sg17
g12
sg18
Vc:\u005cwindows\u005cfonts\u005cltypebo.ttf
p716
sg20
g21
sbag1
(g8
g3
NtRp717
(dp718
g11
g12
sg13
S'Lithos Pro'
p719
sg15
I400
sg16
g12
sg17
g12
sg18
Vc:\u005cwindows\u005cfonts\u005clithospro-regular.otf
p720
sg20
g21
sbag1
(g8
g3
NtRp721
(dp722
g11
g12
sg13
S'Kalinga'
p723
sg15
I700
sg16
g12
sg17
g12
sg18
VC:\u005cWindows\u005cFonts\u005ckalingab.ttf
p724
sg20
g21
sbag1
(g8
g3
NtRp725
(dp726
g11
g12
sg13
S'Aldhabi'
p727
sg15
I400
sg16
g12
sg17
g12
sg18
Vc:\u005cwindows\u005cfonts\u005caldhabi.ttf
p728
sg20
g21
sbag1
(g8
g3
NtRp729
(dp730
g11
g28
sg13
S'Calibri'
p731
sg15
I400
sg16
g12
sg17
g12
sg18
VC:\u005cWindows\u005cFonts\u005ccalibrii.ttf
p732
sg20
g21
sbag1
(g8
g3
NtRp733
(dp734
g11
g12
sg13
S'Kozuka Mincho Pr6N'
p735
sg15
I400
sg16
g12
sg17
g12
sg18
VC:\u005cWindows\u005cFonts\u005cKozMinPr6N-Regular.otf
p736
sg20
g21
sbag1
(g8
g3
NtRp737
(dp738
g11
g12
sg13
S'Myriad Pro'
p739
sg15
I700
sg16
g12
sg17
g12
sg18
VC:\u005cWindows\u005cFonts\u005cMyriadPro-Semibold.otf
p740
sg20
g21
sbag1
(g8
g3
NtRp741
(dp742
g11
g28
sg13
S'Chaparral Pro'
p743
sg15
I400
sg16
g12
sg17
g12
sg18
Vc:\u005cwindows\u005cfonts\u005cchaparralpro-italic.otf
p744
sg20
g21
sbag1
(g8
g3
NtRp745
(dp746
g11
g28
sg13
S'Franklin Gothic Medium'
p747
sg15
I500
sg16
g12
sg17
g12
sg18
VC:\u005cWindows\u005cFonts\u005cframdit.ttf
p748
sg20
g21
sbag1
(g8
g3
NtRp749
(dp750
g11
g28
sg13
S'Chaparral Pro'
p751
sg15
I700
sg16
g12
sg17
g12
sg18
VC:\u005cWindows\u005cFonts\u005cChaparralPro-BoldIt.otf
p752
sg20
g21
sbag1
(g8
g3
NtRp753
(dp754
g11
g28
sg13
S'Utsaah'
p755
sg15
I400
sg16
g12
sg17
g12
sg18
Vc:\u005cwindows\u005cfonts\u005cutsaahi.ttf
p756
sg20
g21
sbag1
(g8
g3
NtRp757
(dp758
g11
g12
sg13
S'Modern No. 20'
p759
sg15
I400
sg16
g12
sg17
g12
sg18
Vc:\u005cwindows\u005cfonts\u005cmod20.ttf
p760
sg20
g21
sbag1
(g8
g3
NtRp761
(dp762
g11
g28
sg13
S'DilleniaUPC'
p763
sg15
I400
sg16
g12
sg17
g12
sg18
Vc:\u005cwindows\u005cfonts\u005cupcdi.ttf
p764
sg20
g21
sbag1
(g8
g3
NtRp765
(dp766
g11
g12
sg13
S'DFKai-SB'
p767
sg15
I400
sg16
g12
sg17
g12
sg18
VC:\u005cWindows\u005cFonts\u005ckaiu.ttf
p768
sg20
g21
sbag1
(g8
g3
NtRp769
(dp770
g11
g12
sg13
S'OCR A Extended'
p771
sg15
I400
sg16
g12
sg17
g12
sg18
Vc:\u005cwindows\u005cfonts\u005cocraext.ttf
p772
sg20
g21
sbag1
(g8
g3
NtRp773
(dp774
g11
g28
sg13
S'AngsanaUPC'
p775
sg15
I700
sg16
g12
sg17
g12
sg18
Vc:\u005cwindows\u005cfonts\u005cangsauz.ttf
p776
sg20
g21
sbag1
(g8
g3
NtRp777
(dp778
g11
g12
sg13
S'Vrinda'
p779
sg15
I700
sg16
g12
sg17
g12
sg18
Vc:\u005cwindows\u005cfonts\u005cvrindab.ttf
p780
sg20
g21
sbag1
(g8
g3
NtRp781
(dp782
g11
g12
sg13
S'Bookman Old Style'
p783
sg15
I700
sg16
g12
sg17
g12
sg18
VC:\u005cWindows\u005cFonts\u005cBOOKOSB.TTF
p784
sg20
g21
sbag1
(g8
g3
NtRp785
(dp786
g11
g12
sg13
S'Shonar Bangla'
p787
sg15
I400
sg16
g12
sg17
g12
sg18
Vc:\u005cwindows\u005cfonts\u005cshonar.ttf
p788
sg20
g21
sbag1
(g8
g3
NtRp789
(dp790
g11
g28
sg13
S'Nueva Std'
p791
sg15
I700
sg16
g203
sg17
g12
sg18
Vc:\u005cwindows\u005cfonts\u005cnuevastd-boldconditalic.otf
p792
sg20
g21
sbag1
(g8
g3
NtRp793
(dp794
g11
g12
sg13
S'Goudy Old Style'
p795
sg15
I700
sg16
g12
sg17
g12
sg18
VC:\u005cWindows\u005cFonts\u005cGOUDOSB.TTF
p796
sg20
g21
sbag1
(g8
g3
NtRp797
(dp798
g11
g28
sg13
S'Lucida Sans'
p799
sg15
I400
sg16
g12
sg17
g12
sg18
Vc:\u005cwindows\u005cfonts\u005clsansi.ttf
p800
sg20
g21
sbag1
(g8
g3
NtRp801
(dp802
g11
g28
sg13
S'KodchiangUPC'
p803
sg15
I400
sg16
g12
sg17
g12
sg18
VC:\u005cWindows\u005cFonts\u005cupcki.ttf
p804
sg20
g21
sbag1
(g8
g3
NtRp805
(dp806
g11
g12
sg13
S'Utsaah'
p807
sg15
I700
sg16
g12
sg17
g12
sg18
VC:\u005cWindows\u005cFonts\u005cutsaahb.ttf
p808
sg20
g21
sbag1
(g8
g3
NtRp809
(dp810
g11
g12
sg13
S'Eras Medium ITC'
p811
sg15
I500
sg16
g12
sg17
g12
sg18
Vc:\u005cwindows\u005cfonts\u005cerasmd.ttf
p812
sg20
g21
sbag1
(g8
g3
NtRp813
(dp814
g11
g28
sg13
S'Verdana'
p815
sg15
I400
sg16
g12
sg17
g12
sg18
Vc:\u005cwindows\u005cfonts\u005cverdanai.ttf
p816
sg20
g21
sbag1
(g8
g3
NtRp817
(dp818
g11
g12
sg13
S'Jokerman'
p819
sg15
I400
sg16
g12
sg17
g12
sg18
VC:\u005cWindows\u005cFonts\u005cJOKERMAN.TTF
p820
sg20
g21
sbag1
(g8
g3
NtRp821
(dp822
g11
g12
sg13
S'Constantia'
p823
sg15
I700
sg16
g12
sg17
g12
sg18
VC:\u005cWindows\u005cFonts\u005cconstanb.ttf
p824
sg20
g21
sbag1
(g8
g3
NtRp825
(dp826
g11
g28
sg13
S'Franklin Gothic Demi'
p827
sg15
I600
sg16
g12
sg17
g12
sg18
Vc:\u005cwindows\u005cfonts\u005cfradmit.ttf
p828
sg20
g21
sbag1
(g8
g3
NtRp829
(dp830
g11
g12
sg13
S'Wingdings 2'
p831
sg15
I400
sg16
g12
sg17
g12
sg18
VC:\u005cWindows\u005cFonts\u005cWINGDNG2.TTF
p832
sg20
g21
sbag1
(g8
g3
NtRp833
(dp834
g11
g12
sg13
S'Utsaah'
p835
sg15
I400
sg16
g12
sg17
g12
sg18
Vc:\u005cwindows\u005cfonts\u005cutsaah.ttf
p836
sg20
g21
sbag1
(g8
g3
NtRp837
(dp838
g11
g12
sg13
S'Kozuka Mincho Pr6N'
p839
sg15
I400
sg16
g12
sg17
g12
sg18
Vc:\u005cwindows\u005cfonts\u005ckozminpr6n-extralight.otf
p840
sg20
g21
sbag1
(g8
g3
NtRp841
(dp842
g11
g28
sg13
S'Myriad Hebrew'
p843
sg15
I700
sg16
g12
sg17
g12
sg18
Vc:\u005cwindows\u005cfonts\u005cmyriadhebrew-boldit.otf
p844
sg20
g21
sbag1
(g8
g3
NtRp845
(dp846
g11
g12
sg13
S'Constantia'
p847
sg15
I400
sg16
g12
sg17
g12
sg18
VC:\u005cWindows\u005cFonts\u005cconstan.ttf
p848
sg20
g21
sbag1
(g8
g3
NtRp849
(dp850
g11
g12
sg13
S'Symbol'
p851
sg15
I400
sg16
g12
sg17
g12
sg18
Vc:\u005cwindows\u005cfonts\u005csymbol.ttf
p852
sg20
g21
sbag1
(g8
g3
NtRp853
(dp854
g11
g28
sg13
S'Bodoni MT'
p855
sg15
I900
sg16
g12
sg17
g12
sg18
VC:\u005cWindows\u005cFonts\u005cBOD_BLAI.TTF
p856
sg20
g21
sbag1
(g8
g3
NtRp857
(dp858
g11
g12
sg13
S'Trajan Pro'
p859
sg15
I700
sg16
g12
sg17
g12
sg18
VC:\u005cWindows\u005cFonts\u005cTrajanPro-Bold.otf
p860
sg20
g21
sbag1
(g8
g3
NtRp861
(dp862
g11
g12
sg13
S'Kozuka Mincho Pr6N'
p863
sg15
I400
sg16
g12
sg17
g12
sg18
Vc:\u005cwindows\u005cfonts\u005ckozminpr6n-regular.otf
p864
sg20
g21
sbag1
(g8
g3
NtRp865
(dp866
g11
g12
sg13
S'Sylfaen'
p867
sg15
I400
sg16
g12
sg17
g12
sg18
Vc:\u005cwindows\u005cfonts\u005csylfaen.ttf
p868
sg20
g21
sbag1
(g8
g3
NtRp869
(dp870
g11
g12
sg13
S'Rockwell Condensed'
p871
sg15
I700
sg16
g203
sg17
g12
sg18
Vc:\u005cwindows\u005cfonts\u005croccb___.ttf
p872
sg20
g21
sbag1
(g8
g3
NtRp873
(dp874
g11
g12
sg13
S'Lucida Sans'
p875
sg15
I700
sg16
g12
sg17
g12
sg18
VC:\u005cWindows\u005cFonts\u005cLSANSD.TTF
p876
sg20
g21
sbag1
(g8
g3
NtRp877
(dp878
g11
g12
sg13
S'Cooper Std'
p879
sg15
I900
sg16
g12
sg17
g12
sg18
VC:\u005cWindows\u005cFonts\u005cCooperBlackStd.otf
p880
sg20
g21
sbag1
(g8
g3
NtRp881
(dp882
g11
g28
sg13
S'Myriad Pro'
p883
sg15
I400
sg16
g12
sg17
g12
sg18
Vc:\u005cwindows\u005cfonts\u005cmyriadpro-it.otf
p884
sg20
g21
sbag1
(g8
g3
NtRp885
(dp886
g11
g12
sg13
S'ZWAdobeF'
p887
sg15
I400
sg16
g12
sg17
g12
sg18
VC:\u005cWindows\u005cFonts\u005cZWAdobeF.TTF
p888
sg20
g21
sbag1
(g8
g3
NtRp889
(dp890
g11
g12
sg13
S'Adobe Hebrew'
p891
sg15
I400
sg16
g12
sg17
g12
sg18
Vc:\u005cwindows\u005cfonts\u005cadobehebrew-regular.otf
p892
sg20
g21
sbag1
(g8
g3
NtRp893
(dp894
g11
g28
sg13
S'Calibri'
p895
sg15
I700
sg16
g12
sg17
g12
sg18
VC:\u005cWindows\u005cFonts\u005ccalibriz.ttf
p896
sg20
g21
sbag1
(g8
g3
NtRp897
(dp898
g11
g12
sg13
S'Aharoni'
p899
sg15
I700
sg16
g12
sg17
g12
sg18
Vc:\u005cwindows\u005cfonts\u005cahronbd.ttf
p900
sg20
g21
sbag1
(g8
g3
NtRp901
(dp902
g11
g12
sg13
S'Bradley Hand ITC'
p903
sg15
I400
sg16
g12
sg17
g12
sg18
VC:\u005cWindows\u005cFonts\u005cBRADHITC.TTF
p904
sg20
g21
sbag1
(g8
g3
NtRp905
(dp906
g11
g12
sg13
S'Kozuka Mincho Pr6N'
p907
sg15
I400
sg16
g12
sg17
g12
sg18
VC:\u005cWindows\u005cFonts\u005cKozMinPr6N-ExtraLight.otf
p908
sg20
g21
sbag1
(g8
g3
NtRp909
(dp910
g11
g28
sg13
S'Adobe Hebrew'
p911
sg15
I400
sg16
g12
sg17
g12
sg18
Vc:\u005cwindows\u005cfonts\u005cadobehebrew-italic.otf
p912
sg20
g21
sbag1
(g8
g3
NtRp913
(dp914
g11
g12
sg13
S'Nirmala UI'
p915
sg15
I200
sg16
g12
sg17
g12
sg18
Vc:\u005cwindows\u005cfonts\u005cnirmalas.ttf
p916
sg20
g21
sbag1
(g8
g3
NtRp917
(dp918
g11
g28
sg13
S'Century Schoolbook'
p919
sg15
I400
sg16
g12
sg17
g12
sg18
Vc:\u005cwindows\u005cfonts\u005cschlbki.ttf
p920
sg20
g21
sbag1
(g8
g3
NtRp921
(dp922
g11
g12
sg13
S'EucrosiaUPC'
p923
sg15
I400
sg16
g12
sg17
g12
sg18
Vc:\u005cwindows\u005cfonts\u005cupcel.ttf
p924
sg20
g21
sbag1
(g8
g3
NtRp925
(dp926
g11
g12
sg13
S'Book Antiqua'
p927
sg15
I400
sg16
g12
sg17
g12
sg18
VC:\u005cWindows\u005cFonts\u005cBKANT.TTF
p928
sg20
g21
sbag1
(g8
g3
NtRp929
(dp930
g11
g12
sg13
S'Kozuka Mincho Pro'
p931
sg15
I400
sg16
g12
sg17
g12
sg18
VC:\u005cWindows\u005cFonts\u005cKozMinPro-ExtraLight.otf
p932
sg20
g21
sbag1
(g8
g3
NtRp933
(dp934
g11
g12
sg13
S'Lucida Fax'
p935
sg15
I700
sg16
g12
sg17
g12
sg18
VC:\u005cWindows\u005cFonts\u005cLFAXD.TTF
p936
sg20
g21
sbag1
(g8
g3
NtRp937
(dp938
g11
g28
sg13
S'Myriad Arabic'
p939
sg15
I700
sg16
g12
sg17
g12
sg18
VC:\u005cWindows\u005cFonts\u005cMyriadArabic-BoldIt.otf
p940
sg20
g21
sbag1
(g8
g3
NtRp941
(dp942
g11
g12
sg13
S'Angsana New'
p943
sg15
I700
sg16
g12
sg17
g12
sg18
VC:\u005cWindows\u005cFonts\u005cangsab.ttf
p944
sg20
g21
sbag1
(g8
g3
NtRp945
(dp946
g11
g12
sg13
S'MoolBoran'
p947
sg15
I400
sg16
g12
sg17
g12
sg18
Vc:\u005cwindows\u005cfonts\u005cmoolbor.ttf
p948
sg20
g21
sbag1
(g8
g3
NtRp949
(dp950
g11
g12
sg13
S'IrisUPC'
p951
sg15
I700
sg16
g12
sg17
g12
sg18
VC:\u005cWindows\u005cFonts\u005cupcib.ttf
p952
sg20
g21
sbag1
(g8
g3
NtRp953
(dp954
g11
g12
sg13
S'Arial'
p955
sg15
I400
sg16
g203
sg17
g12
sg18
VC:\u005cWindows\u005cFonts\u005cARIALN.TTF
p956
sg20
g21
sbag1
(g8
g3
NtRp957
(dp958
g11
g12
sg13
S'KodchiangUPC'
p959
sg15
I400
sg16
g12
sg17
g12
sg18
Vc:\u005cwindows\u005cfonts\u005cupckl.ttf
p960
sg20
g21
sbag1
(g8
g3
NtRp961
(dp962
g11
g12
sg13
S'Gadugi'
p963
sg15
I400
sg16
g12
sg17
g12
sg18
Vc:\u005cwindows\u005cfonts\u005cgadugi.ttf
p964
sg20
g21
sbag1
(g8
g3
NtRp965
(dp966
g11
g12
sg13
S'Franklin Gothic Demi Cond'
p967
sg15
I600
sg16
g203
sg17
g12
sg18
VC:\u005cWindows\u005cFonts\u005cFRADMCN.TTF
p968
sg20
g21
sbag1
(g8
g3
NtRp969
(dp970
g11
g12
sg13
S'Segoe Marker'
p971
sg15
I400
sg16
g12
sg17
g12
sg18
VC:\u005cWindows\u005cFonts\u005cSegoeMarker.ttf
p972
sg20
g21
sbag1
(g8
g3
NtRp973
(dp974
g11
g12
sg13
S'Myriad Pro'
p975
sg15
I700
sg16
g203
sg17
g12
sg18
Vc:\u005cwindows\u005cfonts\u005cmyriadpro-boldcond.otf
p976
sg20
g21
sbag1
(g8
g3
NtRp977
(dp978
g11
g28
sg13
S'Book Antiqua'
p979
sg15
I700
sg16
g12
sg17
g12
sg18
VC:\u005cWindows\u005cFonts\u005cANTQUABI.TTF
p980
sg20
g21
sbag1
(g8
g3
NtRp981
(dp982
g11
g12
sg13
S'Microsoft Tai Le'
p983
sg15
I400
sg16
g12
sg17
g12
sg18
VC:\u005cWindows\u005cFonts\u005ctaile.ttf
p984
sg20
g21
sbag1
(g8
g3
NtRp985
(dp986
g11
g28
sg13
S'Segoe UI'
p987
sg15
I400
sg16
g12
sg17
g12
sg18
VC:\u005cWindows\u005cFonts\u005cseguisli.ttf
p988
sg20
g21
sbag1
(g8
g3
NtRp989
(dp990
g11
g28
sg13
S'KodchiangUPC'
p991
sg15
I700
sg16
g12
sg17
g12
sg18
VC:\u005cWindows\u005cFonts\u005cupckbi.ttf
p992
sg20
g21
sbag1
(g8
g3
NtRp993
(dp994
g11
g28
sg13
S'Century Schoolbook'
p995
sg15
I700
sg16
g12
sg17
g12
sg18
VC:\u005cWindows\u005cFonts\u005cSCHLBKBI.TTF
p996
sg20
g21
sbag1
(g8
g3
NtRp997
(dp998
g11
g12
sg13
S'Bernard MT Condensed'
p999
sg15
I400
sg16
g203
sg17
g12
sg18
VC:\u005cWindows\u005cFonts\u005cBERNHC.TTF
p1000
sg20
g21
sbag1
(g8
g3
NtRp1001
(dp1002
g11
g28
sg13
S'EucrosiaUPC'
p1003
sg15
I700
sg16
g12
sg17
g12
sg18
VC:\u005cWindows\u005cFonts\u005cupcebi.ttf
p1004
sg20
g21
sbag1
(g8
g3
NtRp1005
(dp1006
g11
g28
sg13
S'Bookman Old Style'
p1007
sg15
I400
sg16
g12
sg17
g12
sg18
Vc:\u005cwindows\u005cfonts\u005cbookosi.ttf
p1008
sg20
g21
sbag1
(g8
g3
NtRp1009
(dp1010
g11
g12
sg13
S'Kunstler Script'
p1011
sg15
I400
sg16
g12
sg17
g12
sg18
VC:\u005cWindows\u005cFonts\u005cKUNSTLER.TTF
p1012
sg20
g21
sbag1
(g8
g3
NtRp1013
(dp1014
g11
g12
sg13
S'Gloucester MT Extra Condensed'
p1015
sg15
I400
sg16
g203
sg17
g12
sg18
Vc:\u005cwindows\u005cfonts\u005cglecb.ttf
p1016
sg20
g21
sbag1
(g8
g3
NtRp1017
(dp1018
g11
g28
sg13
S'Adobe Devanagari'
p1019
sg15
I400
sg16
g12
sg17
g12
sg18
VC:\u005cWindows\u005cFonts\u005cAdobeDevanagari-Italic.otf
p1020
sg20
g21
sbag1
(g8
g3
NtRp1021
(dp1022
g11
g12
sg13
S'Chiller'
p1023
sg15
I400
sg16
g12
sg17
g12
sg18
VC:\u005cWindows\u005cFonts\u005cCHILLER.TTF
p1024
sg20
g21
sbag1
(g8
g3
NtRp1025
(dp1026
g11
g12
sg13
S'Gill Sans Ultra Bold Condensed'
p1027
sg15
I700
sg16
g203
sg17
g12
sg18
VC:\u005cWindows\u005cFonts\u005cGILLUBCD.TTF
p1028
sg20
g21
sbag1
(g8
g3
NtRp1029
(dp1030
g11
g28
sg13
S'FreesiaUPC'
p1031
sg15
I400
sg16
g12
sg17
g12
sg18
Vc:\u005cwindows\u005cfonts\u005cupcfi.ttf
p1032
sg20
g21
sbag1
(g8
g3
NtRp1033
(dp1034
g11
g12
sg13
S'Franklin Gothic Medium'
p1035
sg15
I500
sg16
g12
sg17
g12
sg18
VC:\u005cWindows\u005cFonts\u005cframd.ttf
p1036
sg20
g21
sbag1
(g8
g3
NtRp1037
(dp1038
g11
g28
sg13
S'Lucida Sans'
p1039
sg15
I400
sg16
g12
sg17
g12
sg18
VC:\u005cWindows\u005cFonts\u005cLSANSI.TTF
p1040
sg20
g21
sbag1
(g8
g3
NtRp1041
(dp1042
g11
g12
sg13
S'Tekton Pro'
p1043
sg15
I700
sg16
g12
sg17
g12
sg18
VC:\u005cWindows\u005cFonts\u005cTektonPro-BoldExt.otf
p1044
sg20
g21
sbag1
(g8
g3
NtRp1045
(dp1046
g11
g12
sg13
S'Adobe Ming Std'
p1047
sg15
I400
sg16
g12
sg17
g12
sg18
Vc:\u005cwindows\u005cfonts\u005cadobemingstd-light.otf
p1048
sg20
g21
sbag1
(g8
g3
NtRp1049
(dp1050
g11
g12
sg13
S'Calibri'
p1051
sg15
I400
sg16
g12
sg17
g12
sg18
Vc:\u005cwindows\u005cfonts\u005ccalibri.ttf
p1052
sg20
g21
sbag1
(g8
g3
NtRp1053
(dp1054
g11
g12
sg13
S'Felix Titling'
p1055
sg15
I400
sg16
g12
sg17
g12
sg18
VC:\u005cWindows\u005cFonts\u005cFELIXTI.TTF
p1056
sg20
g21
sbag1
(g8
g3
NtRp1057
(dp1058
g11
g28
sg13
S'Myriad Pro'
p1059
sg15
I700
sg16
g12
sg17
g12
sg18
VC:\u005cWindows\u005cFonts\u005cMyriadPro-BoldIt.otf
p1060
sg20
g21
sbag1
(g8
g3
NtRp1061
(dp1062
g11
g12
sg13
S'Impact'
p1063
sg15
I400
sg16
g12
sg17
g12
sg18
VC:\u005cWindows\u005cFonts\u005cimpact.ttf
p1064
sg20
g21
sbag1
(g8
g3
NtRp1065
(dp1066
g11
g12
sg13
S'Centaur'
p1067
sg15
I400
sg16
g12
sg17
g12
sg18
Vc:\u005cwindows\u005cfonts\u005ccentaur.ttf
p1068
sg20
g21
sbag1
(g8
g3
NtRp1069
(dp1070
g11
g12
sg13
S'IrisUPC'
p1071
sg15
I400
sg16
g12
sg17
g12
sg18
Vc:\u005cwindows\u005cfonts\u005cupcil.ttf
p1072
sg20
g21
sbag1
(g8
g3
NtRp1073
(dp1074
g11
g12
sg13
S'Broadway'
p1075
sg15
I400
sg16
g12
sg17
g12
sg18
VC:\u005cWindows\u005cFonts\u005cBROADW.TTF
p1076
sg20
g21
sbag1
(g8
g3
NtRp1077
(dp1078
g11
g12
sg13
S'Kozuka Gothic Pr6N'
p1079
sg15
I700
sg16
g12
sg17
g12
sg18
VC:\u005cWindows\u005cFonts\u005cKozGoPr6N-Heavy.otf
p1080
sg20
g21
sbag1
(g8
g3
NtRp1081
(dp1082
g11
g12
sg13
S'Colonna MT'
p1083
sg15
I400
sg16
g12
sg17
g12
sg18
VC:\u005cWindows\u005cFonts\u005cCOLONNA.TTF
p1084
sg20
g21
sbag1
(g8
g3
NtRp1085
(dp1086
g11
g12
sg13
S'Gill Sans MT'
p1087
sg15
I700
sg16
g12
sg17
g12
sg18
VC:\u005cWindows\u005cFonts\u005cGILB____.TTF
p1088
sg20
g21
sbag1
(g8
g3
NtRp1089
(dp1090
g11
g12
sg13
S'Wingdings'
p1091
sg15
I400
sg16
g12
sg17
g12
sg18
VC:\u005cWindows\u005cFonts\u005cwingding.ttf
p1092
sg20
g21
sbag1
(g8
g3
NtRp1093
(dp1094
g11
g28
sg13
S'Calisto MT'
p1095
sg15
I400
sg16
g12
sg17
g12
sg18
VC:\u005cWindows\u005cFonts\u005cCALISTI.TTF
p1096
sg20
g21
sbag1
(g8
g3
NtRp1097
(dp1098
g11
g12
sg13
S'Lao UI'
p1099
sg15
I400
sg16
g12
sg17
g12
sg18
Vc:\u005cwindows\u005cfonts\u005claoui.ttf
p1100
sg20
g21
sbag1
(g8
g3
NtRp1101
(dp1102
g11
g12
sg13
S'Lucida Console'
p1103
sg15
I400
sg16
g12
sg17
g12
sg18
Vc:\u005cwindows\u005cfonts\u005clucon.ttf
p1104
sg20
g21
sbag1
(g8
g3
NtRp1105
(dp1106
g11
g12
sg13
S'Mangal'
p1107
sg15
I700
sg16
g12
sg17
g12
sg18
VC:\u005cWindows\u005cFonts\u005cmangalb.ttf
p1108
sg20
g21
sbag1
(g8
g3
NtRp1109
(dp1110
g11
g12
sg13
S'Kartika'
p1111
sg15
I400
sg16
g12
sg17
g12
sg18
VC:\u005cWindows\u005cFonts\u005ckartika.ttf
p1112
sg20
g21
sbag1
(g8
g3
NtRp1113
(dp1114
g11
g28
sg13
S'Comic Sans MS'
p1115
sg15
I700
sg16
g12
sg17
g12
sg18
Vc:\u005cwindows\u005cfonts\u005ccomicz.ttf
p1116
sg20
g21
sbag1
(g8
g3
NtRp1117
(dp1118
g11
g12
sg13
S'Vani'
p1119
sg15
I400
sg16
g12
sg17
g12
sg18
Vc:\u005cwindows\u005cfonts\u005cvani.ttf
p1120
sg20
g21
sbag1
(g8
g3
NtRp1121
(dp1122
g11
g12
sg13
S'Arial Rounded MT Bold'
p1123
sg15
I700
sg16
g12
sg17
g12
sg18
Vc:\u005cwindows\u005cfonts\u005carlrdbd.ttf
p1124
sg20
g21
sbag1
(g8
g3
NtRp1125
(dp1126
g11
g12
sg13
S'DilleniaUPC'
p1127
sg15
I400
sg16
g12
sg17
g12
sg18
Vc:\u005cwindows\u005cfonts\u005cupcdl.ttf
p1128
sg20
g21
sbag1
(g8
g3
NtRp1129
(dp1130
g11
g28
sg13
S'Calisto MT'
p1131
sg15
I700
sg16
g12
sg17
g12
sg18
VC:\u005cWindows\u005cFonts\u005cCALISTBI.TTF
p1132
sg20
g21
sbag1
(g8
g3
NtRp1133
(dp1134
g11
g12
sg13
S'Bernard MT Condensed'
p1135
sg15
I400
sg16
g203
sg17
g12
sg18
Vc:\u005cwindows\u005cfonts\u005cbernhc.ttf
p1136
sg20
g21
sbag1
(g8
g3
NtRp1137
(dp1138
g11
g12
sg13
S'Kozuka Mincho Pro'
p1139
sg15
I400
sg16
g12
sg17
g12
sg18
Vc:\u005cwindows\u005cfonts\u005ckozminpro-light.otf
p1140
sg20
g21
sbag1
(g8
g3
NtRp1141
(dp1142
g11
g28
sg13
S'Adobe Arabic'
p1143
sg15
I400
sg16
g12
sg17
g12
sg18
VC:\u005cWindows\u005cFonts\u005cAdobeArabic-Italic.otf
p1144
sg20
g21
sbag1
(g8
g3
NtRp1145
(dp1146
g11
g12
sg13
S'Lucida Sans Unicode'
p1147
sg15
I400
sg16
g12
sg17
g12
sg18
VC:\u005cWindows\u005cFonts\u005cl_10646.ttf
p1148
sg20
g21
sbag1
(g8
g3
NtRp1149
(dp1150
g11
g12
sg13
S'Castellar'
p1151
sg15
I400
sg16
g12
sg17
g12
sg18
Vc:\u005cwindows\u005cfonts\u005ccastelar.ttf
p1152
sg20
g21
sbag1
(g8
g3
NtRp1153
(dp1154
g11
g12
sg13
S'Magneto'
p1155
sg15
I700
sg16
g12
sg17
g12
sg18
Vc:\u005cwindows\u005cfonts\u005cmagnetob.ttf
p1156
sg20
g21
sbag1
(g8
g3
NtRp1157
(dp1158
g11
g12
sg13
S'Kozuka Mincho Pro'
p1159
sg15
I700
sg16
g12
sg17
g12
sg18
VC:\u005cWindows\u005cFonts\u005cKozMinPro-Bold.otf
p1160
sg20
g21
sbag1
(g8
g3
NtRp1161
(dp1162
g11
g28
sg13
S'Myriad Arabic'
p1163
sg15
I700
sg16
g12
sg17
g12
sg18
Vc:\u005cwindows\u005cfonts\u005cmyriadarabic-boldit.otf
p1164
sg20
g21
sbag1
(g8
g3
NtRp1165
(dp1166
g11
g12
sg13
S'CordiaUPC'
p1167
sg15
I700
sg16
g12
sg17
g12
sg18
Vc:\u005cwindows\u005cfonts\u005ccordiaub.ttf
p1168
sg20
g21
sbag1
(g8
g3
NtRp1169
(dp1170
g11
g12
sg13
S'Berlin Sans FB Demi'
p1171
sg15
I700
sg16
g12
sg17
g12
sg18
VC:\u005cWindows\u005cFonts\u005cBRLNSDB.TTF
p1172
sg20
g21
sbag1
(g8
g3
NtRp1173
(dp1174
g11
g12
sg13
S'Arial Unicode MS'
p1175
sg15
I400
sg16
g12
sg17
g12
sg18
Vc:\u005cwindows\u005cfonts\u005carialuni.ttf
p1176
sg20
g21
sbag1
(g8
g3
NtRp1177
(dp1178
g11
g28
sg13
S'Aparajita'
p1179
sg15
I700
sg16
g12
sg17
g12
sg18
Vc:\u005cwindows\u005cfonts\u005caparajbi.ttf
p1180
sg20
g21
sbag1
(g8
g3
NtRp1181
(dp1182
g11
g28
sg13
S'Minion Pro'
p1183
sg15
I700
sg16
g12
sg17
g12
sg18
Vc:\u005cwindows\u005cfonts\u005cminionpro-semiboldit.otf
p1184
sg20
g21
sbag1
(g8
g3
NtRp1185
(dp1186
g11
g12
sg13
S'Ebrima'
p1187
sg15
I700
sg16
g12
sg17
g12
sg18
Vc:\u005cwindows\u005cfonts\u005cebrimabd.ttf
p1188
sg20
g21
sbag1
(g8
g3
NtRp1189
(dp1190
g11
g12
sg13
S'Segoe Print'
p1191
sg15
I400
sg16
g12
sg17
g12
sg18
VC:\u005cWindows\u005cFonts\u005csegoepr.ttf
p1192
sg20
g21
sbag1
(g8
g3
NtRp1193
(dp1194
g11
g12
sg13
S'Microsoft Sans Serif'
p1195
sg15
I400
sg16
g12
sg17
g12
sg18
VC:\u005cWindows\u005cFonts\u005cmicross.ttf
p1196
sg20
g21
sbag1
(g8
g3
NtRp1197
(dp1198
g11
g12
sg13
S'Gill Sans Ultra Bold Condensed'
p1199
sg15
I700
sg16
g203
sg17
g12
sg18
Vc:\u005cwindows\u005cfonts\u005cgillubcd.ttf
p1200
sg20
g21
sbag1
(g8
g3
NtRp1201
(dp1202
g11
g12
sg13
S'Wingdings 3'
p1203
sg15
I400
sg16
g12
sg17
g12
sg18
VC:\u005cWindows\u005cFonts\u005cWINGDNG3.TTF
p1204
sg20
g21
sbag1
(g8
g3
NtRp1205
(dp1206
g11
g28
sg13
S'Kokila'
p1207
sg15
I700
sg16
g12
sg17
g12
sg18
VC:\u005cWindows\u005cFonts\u005ckokilabi.ttf
p1208
sg20
g21
sbag1
(g8
g3
NtRp1209
(dp1210
g11
g28
sg13
S'Gill Sans MT'
p1211
sg15
I700
sg16
g12
sg17
g12
sg18
VC:\u005cWindows\u005cFonts\u005cGILBI___.TTF
p1212
sg20
g21
sbag1
(g8
g3
NtRp1213
(dp1214
g11
g12
sg13
S'Palace Script MT'
p1215
sg15
I400
sg16
g12
sg17
g12
sg18
VC:\u005cWindows\u005cFonts\u005cPALSCRI.TTF
p1216
sg20
g21
sbag1
(g8
g3
NtRp1217
(dp1218
g11
g12
sg13
S'Segoe Print'
p1219
sg15
I700
sg16
g12
sg17
g12
sg18
VC:\u005cWindows\u005cFonts\u005csegoeprb.ttf
p1220
sg20
g21
sbag1
(g8
g3
NtRp1221
(dp1222
g11
g12
sg13
S'FreesiaUPC'
p1223
sg15
I400
sg16
g12
sg17
g12
sg18
VC:\u005cWindows\u005cFonts\u005cupcfl.ttf
p1224
sg20
g21
sbag1
(g8
g3
NtRp1225
(dp1226
g11
g28
sg13
S'Perpetua'
p1227
sg15
I400
sg16
g12
sg17
g12
sg18
Vc:\u005cwindows\u005cfonts\u005cperi____.ttf
p1228
sg20
g21
sbag1
(g8
g3
NtRp1229
(dp1230
g11
g12
sg13
S'Miriam Fixed'
p1231
sg15
I400
sg16
g12
sg17
g12
sg18
Vc:\u005cwindows\u005cfonts\u005cmriamc.ttf
p1232
sg20
g21
sbag1
(g8
g3
NtRp1233
(dp1234
g11
g28
sg13
S'IrisUPC'
p1235
sg15
I400
sg16
g12
sg17
g12
sg18
Vc:\u005cwindows\u005cfonts\u005cupcii.ttf
p1236
sg20
g21
sbag1
(g8
g3
NtRp1237
(dp1238
g11
g12
sg13
S'Copperplate Gothic Light'
p1239
sg15
I200
sg16
g12
sg17
g12
sg18
Vc:\u005cwindows\u005cfonts\u005ccoprgtl.ttf
p1240
sg20
g21
sbag1
(g8
g3
NtRp1241
(dp1242
g11
g28
sg13
S'Tw Cen MT'
p1243
sg15
I400
sg16
g12
sg17
g12
sg18
Vc:\u005cwindows\u005cfonts\u005ctcmi____.ttf
p1244
sg20
g21
sbag1
(g8
g3
NtRp1245
(dp1246
g11
g12
sg13
S'Nueva Std'
p1247
sg15
I400
sg16
g203
sg17
g12
sg18
Vc:\u005cwindows\u005cfonts\u005cnuevastd-cond.otf
p1248
sg20
g21
sbag1
(g8
g3
NtRp1249
(dp1250
g11
g28
sg13
S'Cordia New'
p1251
sg15
I700
sg16
g12
sg17
g12
sg18
VC:\u005cWindows\u005cFonts\u005ccordiaz.ttf
p1252
sg20
g21
sbag1
(g8
g3
NtRp1253
(dp1254
g11
g12
sg13
S'Times New Roman'
p1255
sg15
I500
sg16
g12
sg17
g12
sg18
Vc:\u005cwindows\u005cfonts\u005ctimes.ttf
p1256
sg20
g21
sbag1
(g8
g3
NtRp1257
(dp1258
g11
g12
sg13
S'Wingdings 2'
p1259
sg15
I400
sg16
g12
sg17
g12
sg18
Vc:\u005cwindows\u005cfonts\u005cwingdng2.ttf
p1260
sg20
g21
sbag1
(g8
g3
NtRp1261
(dp1262
g11
g12
sg13
S'Consolas'
p1263
sg15
I700
sg16
g12
sg17
g12
sg18
Vc:\u005cwindows\u005cfonts\u005cconsolab.ttf
p1264
sg20
g21
sbag1
(g8
g3
NtRp1265
(dp1266
g11
g12
sg13
S'Hobo Std'
p1267
sg15
I500
sg16
g12
sg17
g12
sg18
VC:\u005cWindows\u005cFonts\u005cHoboStd.otf
p1268
sg20
g21
sbag1
(g8
g3
NtRp1269
(dp1270
g11
g28
sg13
S'Minion Pro'
p1271
sg15
I700
sg16
g12
sg17
g12
sg18
VC:\u005cWindows\u005cFonts\u005cMinionPro-BoldIt.otf
p1272
sg20
g21
sbag1
(g8
g3
NtRp1273
(dp1274
g11
g12
sg13
S'Cooper Std'
p1275
sg15
I900
sg16
g12
sg17
g12
sg18
Vc:\u005cwindows\u005cfonts\u005ccooperblackstd.otf
p1276
sg20
g21
sbag1
(g8
g3
NtRp1277
(dp1278
g11
g12
sg13
S'Minion Pro'
p1279
sg15
I700
sg16
g12
sg17
g12
sg18
VC:\u005cWindows\u005cFonts\u005cMinionPro-Semibold.otf
p1280
sg20
g21
sbag1
(g8
g3
NtRp1281
(dp1282
g11
g12
sg13
S'DaunPenh'
p1283
sg15
I400
sg16
g12
sg17
g12
sg18
VC:\u005cWindows\u005cFonts\u005cdaunpenh.ttf
p1284
sg20
g21
sbag1
(g8
g3
NtRp1285
(dp1286
g11
g12
sg13
S'Vijaya'
p1287
sg15
I700
sg16
g12
sg17
g12
sg18
Vc:\u005cwindows\u005cfonts\u005cvijayab.ttf
p1288
sg20
g21
sbag1
(g8
g3
NtRp1289
(dp1290
g11
g28
sg13
S'Courier New'
p1291
sg15
I400
sg16
g12
sg17
g12
sg18
Vc:\u005cwindows\u005cfonts\u005ccouri.ttf
p1292
sg20
g21
sbag1
(g8
g3
NtRp1293
(dp1294
g11
g12
sg13
S'Shruti'
p1295
sg15
I700
sg16
g12
sg17
g12
sg18
VC:\u005cWindows\u005cFonts\u005cshrutib.ttf
p1296
sg20
g21
sbag1
(g8
g3
NtRp1297
(dp1298
g11
g28
sg13
S'CordiaUPC'
p1299
sg15
I700
sg16
g12
sg17
g12
sg18
Vc:\u005cwindows\u005cfonts\u005ccordiauz.ttf
p1300
sg20
g21
sbag1
(g8
g3
NtRp1301
(dp1302
g11
g28
sg13
S'Bodoni MT'
p1303
sg15
I400
sg16
g12
sg17
g12
sg18
Vc:\u005cwindows\u005cfonts\u005cbod_i.ttf
p1304
sg20
g21
sbag1
(g8
g3
NtRp1305
(dp1306
g11
g12
sg13
S'Shonar Bangla'
p1307
sg15
I700
sg16
g12
sg17
g12
sg18
Vc:\u005cwindows\u005cfonts\u005cshonarb.ttf
p1308
sg20
g21
sbag1
(g8
g3
NtRp1309
(dp1310
g11
g28
sg13
S'Minion Pro'
p1311
sg15
I400
sg16
g12
sg17
g12
sg18
Vc:\u005cwindows\u005cfonts\u005cminionpro-it.otf
p1312
sg20
g21
sbag1
(g8
g3
NtRp1313
(dp1314
g11
g12
sg13
S'Engravers MT'
p1315
sg15
I400
sg16
g12
sg17
g12
sg18
Vc:\u005cwindows\u005cfonts\u005cengr.ttf
p1316
sg20
g21
sbag1
(g8
g3
NtRp1317
(dp1318
g11
g12
sg13
S'Kozuka Mincho Pro'
p1319
sg15
I400
sg16
g12
sg17
g12
sg18
VC:\u005cWindows\u005cFonts\u005cKozMinPro-Light.otf
p1320
sg20
g21
sbag1
(g8
g3
NtRp1321
(dp1322
g11
g12
sg13
S'Century Gothic'
p1323
sg15
I400
sg16
g12
sg17
g12
sg18
VC:\u005cWindows\u005cFonts\u005cGOTHIC.TTF
p1324
sg20
g21
sbag1
(g8
g3
NtRp1325
(dp1326
g11
g28
sg13
S'Minion Pro'
p1327
sg15
I500
sg16
g12
sg17
g12
sg18
Vc:\u005cwindows\u005cfonts\u005cminionpro-mediumit.otf
p1328
sg20
g21
sbag1
(g8
g3
NtRp1329
(dp1330
g11
g12
sg13
S'Kozuka Mincho Pro'
p1331
sg15
I400
sg16
g12
sg17
g12
sg18
Vc:\u005cwindows\u005cfonts\u005ckozminpro-regular.otf
p1332
sg20
g21
sbag1
(g8
g3
NtRp1333
(dp1334
g11
g12
sg13
S'Haettenschweiler'
p1335
sg15
I400
sg16
g12
sg17
g12
sg18
VC:\u005cWindows\u005cFonts\u005cHATTEN.TTF
p1336
sg20
g21
sbag1
(g8
g3
NtRp1337
(dp1338
g11
g28
sg13
S'Times New Roman'
p1339
sg15
I700
sg16
g12
sg17
g12
sg18
VC:\u005cWindows\u005cFonts\u005ctimesbi.ttf
p1340
sg20
g21
sbag1
(g8
g3
NtRp1341
(dp1342
g11
g12
sg13
S'Birch Std'
p1343
sg15
I400
sg16
g12
sg17
g12
sg18
Vc:\u005cwindows\u005cfonts\u005cbirchstd.otf
p1344
sg20
g21
sbag1
(g8
g3
NtRp1345
(dp1346
g11
g12
sg13
S'Vladimir Script'
p1347
sg15
I400
sg16
g12
sg17
g12
sg18
VC:\u005cWindows\u005cFonts\u005cVLADIMIR.TTF
p1348
sg20
g21
sbag1
(g8
g3
NtRp1349
(dp1350
g11
g28
sg13
S'Segoe UI'
p1351
sg15
I400
sg16
g12
sg17
g12
sg18
VC:\u005cWindows\u005cFonts\u005cseguili.ttf
p1352
sg20
g21
sbag1
(g8
g3
NtRp1353
(dp1354
g11
g12
sg13
S'Kozuka Gothic Pro'
p1355
sg15
I700
sg16
g12
sg17
g12
sg18
Vc:\u005cwindows\u005cfonts\u005ckozgopro-bold.otf
p1356
sg20
g21
sbag1
(g8
g3
NtRp1357
(dp1358
g11
g12
sg13
S'Bookman Old Style'
p1359
sg15
I700
sg16
g12
sg17
g12
sg18
Vc:\u005cwindows\u005cfonts\u005cbookosb.ttf
p1360
sg20
g21
sbag1
(g8
g3
NtRp1361
(dp1362
g11
g12
sg13
S'Myriad Hebrew'
p1363
sg15
I400
sg16
g12
sg17
g12
sg18
VC:\u005cWindows\u005cFonts\u005cMyriadHebrew-Regular.otf
p1364
sg20
g21
sbag1
(g8
g3
NtRp1365
(dp1366
g11
g12
sg13
S'BrowalliaUPC'
p1367
sg15
I700
sg16
g12
sg17
g12
sg18
Vc:\u005cwindows\u005cfonts\u005cbrowaub.ttf
p1368
sg20
g21
sbag1
(g8
g3
NtRp1369
(dp1370
g11
g12
sg13
S'Adobe Arabic'
p1371
sg15
I700
sg16
g12
sg17
g12
sg18
VC:\u005cWindows\u005cFonts\u005cAdobeArabic-Bold.otf
p1372
sg20
g21
sbag1
(g8
g3
NtRp1373
(dp1374
g11
g28
sg13
S'DilleniaUPC'
p1375
sg15
I700
sg16
g12
sg17
g12
sg18
Vc:\u005cwindows\u005cfonts\u005cupcdbi.ttf
p1376
sg20
g21
sbag1
(g8
g3
NtRp1377
(dp1378
g11
g12
sg13
S'Felix Titling'
p1379
sg15
I400
sg16
g12
sg17
g12
sg18
Vc:\u005cwindows\u005cfonts\u005cfelixti.ttf
p1380
sg20
g21
sbag1
(g8
g3
NtRp1381
(dp1382
g11
g12
sg13
S'Adobe Fangsong Std'
p1383
sg15
I400
sg16
g12
sg17
g12
sg18
VC:\u005cWindows\u005cFonts\u005cAdobeFangsongStd-Regular.otf
p1384
sg20
g21
sbag1
(g8
g3
NtRp1385
(dp1386
g11
g28
sg13
S'Kokila'
p1387
sg15
I400
sg16
g12
sg17
g12
sg18
VC:\u005cWindows\u005cFonts\u005ckokilai.ttf
p1388
sg20
g21
sbag1
(g8
g3
NtRp1389
(dp1390
g11
g28
sg13
S'Adobe Devanagari'
p1391
sg15
I700
sg16
g12
sg17
g12
sg18
VC:\u005cWindows\u005cFonts\u005cAdobeDevanagari-BoldItalic.otf
p1392
sg20
g21
sbag1
(g8
g3
NtRp1393
(dp1394
g11
g28
sg13
S'Minion Pro'
p1395
sg15
I500
sg16
g12
sg17
g12
sg18
VC:\u005cWindows\u005cFonts\u005cMinionPro-MediumIt.otf
p1396
sg20
g21
sbag1
(g8
g3
NtRp1397
(dp1398
g11
g28
sg13
S'Palatino Linotype'
p1399
sg15
I400
sg16
g12
sg17
g12
sg18
Vc:\u005cwindows\u005cfonts\u005cpalai.ttf
p1400
sg20
g21
sbag1
(g8
g3
NtRp1401
(dp1402
g11
g28
sg13
S'Franklin Gothic Heavy'
p1403
sg15
I800
sg16
g12
sg17
g12
sg18
Vc:\u005cwindows\u005cfonts\u005cfrahvit.ttf
p1404
sg20
g21
sbag1
(g8
g3
NtRp1405
(dp1406
g11
g12
sg13
S'Malgun Gothic'
p1407
sg15
I400
sg16
g12
sg17
g12
sg18
VC:\u005cWindows\u005cFonts\u005cmalgun.ttf
p1408
sg20
g21
sbag1
(g8
g3
NtRp1409
(dp1410
g11
g12
sg13
S'Berlin Sans FB'
p1411
sg15
I400
sg16
g12
sg17
g12
sg18
VC:\u005cWindows\u005cFonts\u005cBRLNSR.TTF
p1412
sg20
g21
sbag1
(g8
g3
NtRp1413
(dp1414
g11
g28
sg13
S'Trebuchet MS'
p1415
sg15
I400
sg16
g12
sg17
g12
sg18
VC:\u005cWindows\u005cFonts\u005ctrebucit.ttf
p1416
sg20
g21
sbag1
(g8
g3
NtRp1417
(dp1418
g11
g12
sg13
S'Yu Gothic'
p1419
sg15
I700
sg16
g12
sg17
g12
sg18
VC:\u005cWindows\u005cFonts\u005cyugothib.ttf
p1420
sg20
g21
sbag1
(g8
g3
NtRp1421
(dp1422
g11
g12
sg13
S'Cordia New'
p1423
sg15
I400
sg16
g12
sg17
g12
sg18
Vc:\u005cwindows\u005cfonts\u005ccordia.ttf
p1424
sg20
g21
sbag1
(g8
g3
NtRp1425
(dp1426
g11
g12
sg13
S'David'
p1427
sg15
I700
sg16
g12
sg17
g12
sg18
Vc:\u005cwindows\u005cfonts\u005cdavidbd.ttf
p1428
sg20
g21
sbag1
(g8
g3
NtRp1429
(dp1430
g11
g12
sg13
S'Yu Mincho'
p1431
sg15
I400
sg16
g12
sg17
g12
sg18
Vc:\u005cwindows\u005cfonts\u005cyumin.ttf
p1432
sg20
g21
sbag1
(g8
g3
NtRp1433
(dp1434
g11
g28
sg13
S'Perpetua'
p1435
sg15
I400
sg16
g12
sg17
g12
sg18
VC:\u005cWindows\u005cFonts\u005cPERI____.TTF
p1436
sg20
g21
sbag1
(g8
g3
NtRp1437
(dp1438
g11
g12
sg13
S'Bodoni MT'
p1439
sg15
I700
sg16
g12
sg17
g12
sg18
Vc:\u005cwindows\u005cfonts\u005cbod_b.ttf
p1440
sg20
g21
sbag1
(g8
g3
NtRp1441
(dp1442
g11
g12
sg13
S'Yu Gothic'
p1443
sg15
I400
sg16
g12
sg17
g12
sg18
Vc:\u005cwindows\u005cfonts\u005cyugothil.ttf
p1444
sg20
g21
sbag1
(g8
g3
NtRp1445
(dp1446
g11
g12
sg13
S'Century Schoolbook'
p1447
sg15
I700
sg16
g12
sg17
g12
sg18
Vc:\u005cwindows\u005cfonts\u005cschlbkb.ttf
p1448
sg20
g21
sbag1
(g8
g3
NtRp1449
(dp1450
g11
g12
sg13
S'Yu Gothic'
p1451
sg15
I400
sg16
g12
sg17
g12
sg18
Vc:\u005cwindows\u005cfonts\u005cyugothic.ttf
p1452
sg20
g21
sbag1
(g8
g3
NtRp1453
(dp1454
g11
g12
sg13
S'Hobo Std'
p1455
sg15
I500
sg16
g12
sg17
g12
sg18
Vc:\u005cwindows\u005cfonts\u005chobostd.otf
p1456
sg20
g21
sbag1
(g8
g3
NtRp1457
(dp1458
g11
g12
sg13
S'Chiller'
p1459
sg15
I400
sg16
g12
sg17
g12
sg18
Vc:\u005cwindows\u005cfonts\u005cchiller.ttf
p1460
sg20
g21
sbag1
(g8
g3
NtRp1461
(dp1462
g11
g12
sg13
S'Book Antiqua'
p1463
sg15
I700
sg16
g12
sg17
g12
sg18
VC:\u005cWindows\u005cFonts\u005cANTQUAB.TTF
p1464
sg20
g21
sbag1
(g8
g3
NtRp1465
(dp1466
g11
g12
sg13
S'Tw Cen MT'
p1467
sg15
I700
sg16
g12
sg17
g12
sg18
Vc:\u005cwindows\u005cfonts\u005ctcb_____.ttf
p1468
sg20
g21
sbag1
(g8
g3
NtRp1469
(dp1470
g11
g28
sg13
S'Arial'
p1471
sg15
I400
sg16
g203
sg17
g12
sg18
VC:\u005cWindows\u005cFonts\u005cARIALNI.TTF
p1472
sg20
g21
sbag1
(g8
g3
NtRp1473
(dp1474
g11
g12
sg13
S'Simplified Arabic Fixed'
p1475
sg15
I400
sg16
g12
sg17
g12
sg18
Vc:\u005cwindows\u005cfonts\u005csimpfxo.ttf
p1476
sg20
g21
sbag1
(g8
g3
NtRp1477
(dp1478
g11
g28
sg13
S'Myriad Pro'
p1479
sg15
I400
sg16
g12
sg17
g12
sg18
VC:\u005cWindows\u005cFonts\u005cMyriadPro-It.otf
p1480
sg20
g21
sbag1
(g8
g3
NtRp1481
(dp1482
g11
g12
sg13
S'Corbel'
p1483
sg15
I400
sg16
g12
sg17
g12
sg18
VC:\u005cWindows\u005cFonts\u005ccorbel.ttf
p1484
sg20
g21
sbag1
(g8
g3
NtRp1485
(dp1486
g11
g12
sg13
S'Mangal'
p1487
sg15
I400
sg16
g12
sg17
g12
sg18
Vc:\u005cwindows\u005cfonts\u005cmangal.ttf
p1488
sg20
g21
sbag1
(g8
g3
NtRp1489
(dp1490
g11
g12
sg13
S'Trebuchet MS'
p1491
sg15
I400
sg16
g12
sg17
g12
sg18
Vc:\u005cwindows\u005cfonts\u005ctrebuc.ttf
p1492
sg20
g21
sbag1
(g8
g3
NtRp1493
(dp1494
g11
g12
sg13
S'SimHei'
p1495
sg15
I400
sg16
g12
sg17
g12
sg18
Vc:\u005cwindows\u005cfonts\u005csimhei.ttf
p1496
sg20
g21
sbag1
(g8
g3
NtRp1497
(dp1498
g11
g12
sg13
S'Forte'
p1499
sg15
I400
sg16
g12
sg17
g12
sg18
VC:\u005cWindows\u005cFonts\u005cFORTE.TTF
p1500
sg20
g21
sbag1
(g8
g3
NtRp1501
(dp1502
g11
g12
sg13
S'Gill Sans MT'
p1503
sg15
I400
sg16
g12
sg17
g12
sg18
Vc:\u005cwindows\u005cfonts\u005cgil_____.ttf
p1504
sg20
g21
sbag1
(g8
g3
NtRp1505
(dp1506
g11
g12
sg13
S'Latha'
p1507
sg15
I400
sg16
g12
sg17
g12
sg18
Vc:\u005cwindows\u005cfonts\u005clatha.ttf
p1508
sg20
g21
sbag1
(g8
g3
NtRp1509
(dp1510
g11
g12
sg13
S'Gill Sans MT Ext Condensed Bold'
p1511
sg15
I700
sg16
g203
sg17
g12
sg18
VC:\u005cWindows\u005cFonts\u005cGLSNECB.TTF
p1512
sg20
g21
sbag1
(g8
g3
NtRp1513
(dp1514
g11
g28
sg13
S'Orator Std'
p1515
sg15
I400
sg16
g12
sg17
g12
sg18
Vc:\u005cwindows\u005cfonts\u005coratorstd-slanted.otf
p1516
sg20
g21
sbag1
(g8
g3
NtRp1517
(dp1518
g11
g28
sg13
S'Cambria'
p1519
sg15
I400
sg16
g12
sg17
g12
sg18
Vc:\u005cwindows\u005cfonts\u005ccambriai.ttf
p1520
sg20
g21
sbag1
(g8
g3
NtRp1521
(dp1522
g11
g12
sg13
S'Eras Medium ITC'
p1523
sg15
I500
sg16
g12
sg17
g12
sg18
VC:\u005cWindows\u005cFonts\u005cERASMD.TTF
p1524
sg20
g21
sbag1
(g8
g3
NtRp1525
(dp1526
g11
g12
sg13
S'Showcard Gothic'
p1527
sg15
I400
sg16
g12
sg17
g12
sg18
VC:\u005cWindows\u005cFonts\u005cSHOWG.TTF
p1528
sg20
g21
sbag1
(g8
g3
NtRp1529
(dp1530
g11
g12
sg13
S'Trajan Pro'
p1531
sg15
I400
sg16
g12
sg17
g12
sg18
Vc:\u005cwindows\u005cfonts\u005ctrajanpro-regular.otf
p1532
sg20
g21
sbag1
(g8
g3
NtRp1533
(dp1534
g11
g28
sg13
S'Brush Script MT'
p1535
sg15
I400
sg16
g12
sg17
g12
sg18
VC:\u005cWindows\u005cFonts\u005cBRUSHSCI.TTF
p1536
sg20
g21
sbag1
(g8
g3
NtRp1537
(dp1538
g11
g28
sg13
S'BrowalliaUPC'
p1539
sg15
I400
sg16
g12
sg17
g12
sg18
VC:\u005cWindows\u005cFonts\u005cbrowaui.ttf
p1540
sg20
g21
sbag1
(g8
g3
NtRp1541
(dp1542
g11
g12
sg13
S'Javanese Text'
p1543
sg15
I400
sg16
g12
sg17
g12
sg18
Vc:\u005cwindows\u005cfonts\u005cjavatext.ttf
p1544
sg20
g21
sbag1
(g8
g3
NtRp1545
(dp1546
g11
g12
sg13
S'Californian FB'
p1547
sg15
I400
sg16
g12
sg17
g12
sg18
Vc:\u005cwindows\u005cfonts\u005ccalifr.ttf
p1548
sg20
g21
sbag1
(g8
g3
NtRp1549
(dp1550
g11
g12
sg13
S'Calisto MT'
p1551
sg15
I400
sg16
g12
sg17
g12
sg18
VC:\u005cWindows\u005cFonts\u005cCALIST.TTF
p1552
sg20
g21
sbag1
(g8
g3
NtRp1553
(dp1554
g11
g12
sg13
S'Myriad Pro'
p1555
sg15
I700
sg16
g12
sg17
g12
sg18
VC:\u005cWindows\u005cFonts\u005cMyriadPro-Bold.otf
p1556
sg20
g21
sbag1
(g8
g3
NtRp1557
(dp1558
g11
g12
sg13
S'Traditional Arabic'
p1559
sg15
I700
sg16
g12
sg17
g12
sg18
Vc:\u005cwindows\u005cfonts\u005ctradbdo.ttf
p1560
sg20
g21
sbag1
(g8
g3
NtRp1561
(dp1562
g11
g12
sg13
S'Segoe Script'
p1563
sg15
I700
sg16
g12
sg17
g12
sg18
Vc:\u005cwindows\u005cfonts\u005csegoescb.ttf
p1564
sg20
g21
sbag1
(g8
g3
NtRp1565
(dp1566
g11
g12
sg13
S'Arial'
p1567
sg15
I900
sg16
g12
sg17
g12
sg18
VC:\u005cWindows\u005cFonts\u005cariblk.ttf
p1568
sg20
g21
sbag1
(g8
g3
NtRp1569
(dp1570
g11
g12
sg13
S'Century Schoolbook'
p1571
sg15
I400
sg16
g12
sg17
g12
sg18
Vc:\u005cwindows\u005cfonts\u005ccenscbk.ttf
p1572
sg20
g21
sbag1
(g8
g3
NtRp1573
(dp1574
g11
g12
sg13
S'Adobe Fangsong Std'
p1575
sg15
I400
sg16
g12
sg17
g12
sg18
Vc:\u005cwindows\u005cfonts\u005cadobefangsongstd-regular.otf
p1576
sg20
g21
sbag1
(g8
g3
NtRp1577
(dp1578
g11
g28
sg13
S'Myriad Pro'
p1579
sg15
I400
sg16
g203
sg17
g12
sg18
Vc:\u005cwindows\u005cfonts\u005cmyriadpro-condit.otf
p1580
sg20
g21
sbag1
(g8
g3
NtRp1581
(dp1582
g11
g12
sg13
S'Gloucester MT Extra Condensed'
p1583
sg15
I400
sg16
g203
sg17
g12
sg18
VC:\u005cWindows\u005cFonts\u005cGLECB.TTF
p1584
sg20
g21
sbag1
(g8
g3
NtRp1585
(dp1586
g11
g12
sg13
S'Gautami'
p1587
sg15
I400
sg16
g12
sg17
g12
sg18
VC:\u005cWindows\u005cFonts\u005cgautami.ttf
p1588
sg20
g21
sbag1
(g8
g3
NtRp1589
(dp1590
g11
g12
sg13
S'Niagara Solid'
p1591
sg15
I400
sg16
g12
sg17
g12
sg18
VC:\u005cWindows\u005cFonts\u005cNIAGSOL.TTF
p1592
sg20
g21
sbag1
(g8
g3
NtRp1593
(dp1594
g11
g12
sg13
S'Microsoft Yi Baiti'
p1595
sg15
I400
sg16
g12
sg17
g12
sg18
VC:\u005cWindows\u005cFonts\u005cmsyi.ttf
p1596
sg20
g21
sbag1
(g8
g3
NtRp1597
(dp1598
g11
g12
sg13
S'Poplar Std'
p1599
sg15
I900
sg16
g12
sg17
g12
sg18
Vc:\u005cwindows\u005cfonts\u005cpoplarstd.otf
p1600
sg20
g21
sbag1
(g8
g3
NtRp1601
(dp1602
g11
g28
sg13
S'Adobe Caslon Pro'
p1603
sg15
I400
sg16
g12
sg17
g12
sg18
VC:\u005cWindows\u005cFonts\u005cACaslonPro-Italic.otf
p1604
sg20
g21
sbag1
(g8
g3
NtRp1605
(dp1606
g11
g12
sg13
S'Adobe Arabic'
p1607
sg15
I400
sg16
g12
sg17
g12
sg18
Vc:\u005cwindows\u005cfonts\u005cadobearabic-regular.otf
p1608
sg20
g21
sbag1
(g8
g3
NtRp1609
(dp1610
g11
g12
sg13
S'DilleniaUPC'
p1611
sg15
I700
sg16
g12
sg17
g12
sg18
Vc:\u005cwindows\u005cfonts\u005cupcdb.ttf
p1612
sg20
g21
sbag1
(g8
g3
NtRp1613
(dp1614
g11
g28
sg13
S'Tw Cen MT'
p1615
sg15
I700
sg16
g12
sg17
g12
sg18
Vc:\u005cwindows\u005cfonts\u005ctcbi____.ttf
p1616
sg20
g21
sbag1
(g8
g3
NtRp1617
(dp1618
g11
g12
sg13
S'EucrosiaUPC'
p1619
sg15
I700
sg16
g12
sg17
g12
sg18
VC:\u005cWindows\u005cFonts\u005cupceb.ttf
p1620
sg20
g21
sbag1
(g8
g3
NtRp1621
(dp1622
g11
g12
sg13
S'LilyUPC'
p1623
sg15
I700
sg16
g12
sg17
g12
sg18
VC:\u005cWindows\u005cFonts\u005cupclb.ttf
p1624
sg20
g21
sbag1
(g8
g3
NtRp1625
(dp1626
g11
g12
sg13
S'Verdana'
p1627
sg15
I700
sg16
g12
sg17
g12
sg18
Vc:\u005cwindows\u005cfonts\u005cverdanab.ttf
p1628
sg20
g21
sbag1
(g8
g3
NtRp1629
(dp1630
g11
g12
sg13
S'Microsoft PhagsPa'
p1631
sg15
I700
sg16
g12
sg17
g12
sg18
VC:\u005cWindows\u005cFonts\u005cphagspab.ttf
p1632
sg20
g21
sbag1
(g8
g3
NtRp1633
(dp1634
g11
g28
sg13
S'Courier New'
p1635
sg15
I700
sg16
g12
sg17
g12
sg18
Vc:\u005cwindows\u005cfonts\u005ccourbi.ttf
p1636
sg20
g21
sbag1
(g8
g3
NtRp1637
(dp1638
g11
g12
sg13
S'Microsoft PhagsPa'
p1639
sg15
I400
sg16
g12
sg17
g12
sg18
Vc:\u005cwindows\u005cfonts\u005cphagspa.ttf
p1640
sg20
g21
sbag1
(g8
g3
NtRp1641
(dp1642
g11
g12
sg13
S'Wingdings 3'
p1643
sg15
I400
sg16
g12
sg17
g12
sg18
Vc:\u005cwindows\u005cfonts\u005cwingdng3.ttf
p1644
sg20
g21
sbag1
(g8
g3
NtRp1645
(dp1646
g11
g12
sg13
S'Trajan Pro'
p1647
sg15
I700
sg16
g12
sg17
g12
sg18
Vc:\u005cwindows\u005cfonts\u005ctrajanpro-bold.otf
p1648
sg20
g21
sbag1
(g8
g3
NtRp1649
(dp1650
g11
g12
sg13
S'Calisto MT'
p1651
sg15
I700
sg16
g12
sg17
g12
sg18
Vc:\u005cwindows\u005cfonts\u005ccalistb.ttf
p1652
sg20
g21
sbag1
(g8
g3
NtRp1653
(dp1654
g11
g12
sg13
S'Shruti'
p1655
sg15
I400
sg16
g12
sg17
g12
sg18
VC:\u005cWindows\u005cFonts\u005cshruti.ttf
p1656
sg20
g21
sbag1
(g8
g3
NtRp1657
(dp1658
g11
g28
sg13
S'Calisto MT'
p1659
sg15
I400
sg16
g12
sg17
g12
sg18
Vc:\u005cwindows\u005cfonts\u005ccalisti.ttf
p1660
sg20
g21
sbag1
(g8
g3
NtRp1661
(dp1662
g11
g12
sg13
S'Angsana New'
p1663
sg15
I400
sg16
g12
sg17
g12
sg18
VC:\u005cWindows\u005cFonts\u005cangsa.ttf
p1664
sg20
g21
sbag1
(g8
g3
NtRp1665
(dp1666
g11
g12
sg13
S'Chaparral Pro'
p1667
sg15
I400
sg16
g12
sg17
g12
sg18
Vc:\u005cwindows\u005cfonts\u005cchaparralpro-regular.otf
p1668
sg20
g21
sbag1
(g8
g3
NtRp1669
(dp1670
g11
g28
sg13
S'Chaparral Pro'
p1671
sg15
I700
sg16
g12
sg17
g12
sg18
Vc:\u005cwindows\u005cfonts\u005cchaparralpro-boldit.otf
p1672
sg20
g21
sbag1
(g8
g3
NtRp1673
(dp1674
g11
g12
sg13
S'Viner Hand ITC'
p1675
sg15
I400
sg16
g12
sg17
g12
sg18
Vc:\u005cwindows\u005cfonts\u005cvineritc.ttf
p1676
sg20
g21
sbag1
(g8
g3
NtRp1677
(dp1678
g11
g12
sg13
S'Jokerman'
p1679
sg15
I400
sg16
g12
sg17
g12
sg18
Vc:\u005cwindows\u005cfonts\u005cjokerman.ttf
p1680
sg20
g21
sbag1
(g8
g3
NtRp1681
(dp1682
g11
g12
sg13
S'Adobe Caslon Pro'
p1683
sg15
I700
sg16
g12
sg17
g12
sg18
Vc:\u005cwindows\u005cfonts\u005cacaslonpro-semibold.otf
p1684
sg20
g21
sbag1
(g8
g3
NtRp1685
(dp1686
g11
g12
sg13
S'Segoe UI'
p1687
sg15
I700
sg16
g12
sg17
g12
sg18
VC:\u005cWindows\u005cFonts\u005csegoeuib.ttf
p1688
sg20
g21
sbag1
(g8
g3
NtRp1689
(dp1690
g11
g12
sg13
S'Kozuka Mincho Pr6N'
p1691
sg15
I400
sg16
g12
sg17
g12
sg18
Vc:\u005cwindows\u005cfonts\u005ckozminpr6n-medium.otf
p1692
sg20
g21
sbag1
(g8
g3
NtRp1693
(dp1694
g11
g28
sg13
S'Candara'
p1695
sg15
I700
sg16
g12
sg17
g12
sg18
VC:\u005cWindows\u005cFonts\u005cCandaraz.ttf
p1696
sg20
g21
sbag1
(g8
g3
NtRp1697
(dp1698
g11
g12
sg13
S'Blackadder ITC'
p1699
sg15
I900
sg16
g12
sg17
g12
sg18
Vc:\u005cwindows\u005cfonts\u005citcblkad.ttf
p1700
sg20
g21
sbag1
(g8
g3
NtRp1701
(dp1702
g11
g28
sg13
S'Bodoni MT'
p1703
sg15
I700
sg16
g203
sg17
g12
sg18
VC:\u005cWindows\u005cFonts\u005cBOD_CBI.TTF
p1704
sg20
g21
sbag1
(g8
g3
NtRp1705
(dp1706
g11
g12
sg13
S'Baskerville Old Face'
p1707
sg15
I400
sg16
g12
sg17
g12
sg18
Vc:\u005cwindows\u005cfonts\u005cbaskvill.ttf
p1708
sg20
g21
sbag1
(g8
g3
NtRp1709
(dp1710
g11
g12
sg13
S'Lucida Fax'
p1711
sg15
I400
sg16
g12
sg17
g12
sg18
VC:\u005cWindows\u005cFonts\u005cLFAX.TTF
p1712
sg20
g21
sbag1
(g8
g3
NtRp1713
(dp1714
g11
g12
sg13
S'Aparajita'
p1715
sg15
I700
sg16
g12
sg17
g12
sg18
VC:\u005cWindows\u005cFonts\u005caparajb.ttf
p1716
sg20
g21
sbag1
(g8
g3
NtRp1717
(dp1718
g11
g12
sg13
S'Pristina'
p1719
sg15
I400
sg16
g12
sg17
g12
sg18
VC:\u005cWindows\u005cFonts\u005cPRISTINA.TTF
p1720
sg20
g21
sbag1
(g8
g3
NtRp1721
(dp1722
g11
g28
sg13
S'Rockwell'
p1723
sg15
I400
sg16
g12
sg17
g12
sg18
Vc:\u005cwindows\u005cfonts\u005crocki.ttf
p1724
sg20
g21
sbag1
(g8
g3
NtRp1725
(dp1726
g11
g12
sg13
S'Calibri'
p1727
sg15
I700
sg16
g12
sg17
g12
sg18
VC:\u005cWindows\u005cFonts\u005ccalibrib.ttf
p1728
sg20
g21
sbag1
(g8
g3
NtRp1729
(dp1730
g11
g12
sg13
S'Kozuka Gothic Pro'
p1731
sg15
I400
sg16
g12
sg17
g12
sg18
Vc:\u005cwindows\u005cfonts\u005ckozgopro-light.otf
p1732
sg20
g21
sbag1
(g8
g3
NtRp1733
(dp1734
g11
g28
sg13
S'Book Antiqua'
p1735
sg15
I400
sg16
g12
sg17
g12
sg18
VC:\u005cWindows\u005cFonts\u005cANTQUAI.TTF
p1736
sg20
g21
sbag1
(g8
g3
NtRp1737
(dp1738
g11
g12
sg13
S'Book Antiqua'
p1739
sg15
I400
sg16
g12
sg17
g12
sg18
Vc:\u005cwindows\u005cfonts\u005cbkant.ttf
p1740
sg20
g21
sbag1
(g8
g3
NtRp1741
(dp1742
g11
g12
sg13
S'Tw Cen MT Condensed'
p1743
sg15
I400
sg16
g203
sg17
g12
sg18
VC:\u005cWindows\u005cFonts\u005cTCCM____.TTF
p1744
sg20
g21
sbag1
(g8
g3
NtRp1745
(dp1746
g11
g28
sg13
S'Bodoni MT'
p1747
sg15
I400
sg16
g12
sg17
g12
sg18
VC:\u005cWindows\u005cFonts\u005cBOD_I.TTF
p1748
sg20
g21
sbag1
(g8
g3
NtRp1749
(dp1750
g11
g12
sg13
S'Adobe Fan Heiti Std'
p1751
sg15
I700
sg16
g12
sg17
g12
sg18
VC:\u005cWindows\u005cFonts\u005cAdobeFanHeitiStd-Bold.otf
p1752
sg20
g21
sbag1
(g8
g3
NtRp1753
(dp1754
g11
g28
sg13
S'Nueva Std'
p1755
sg15
I400
sg16
g12
sg17
g12
sg18
Vc:\u005cwindows\u005cfonts\u005cnuevastd-italic.otf
p1756
sg20
g21
sbag1
(g8
g3
NtRp1757
(dp1758
g11
g12
sg13
S'Garamond'
p1759
sg15
I700
sg16
g12
sg17
g12
sg18
Vc:\u005cwindows\u005cfonts\u005cgarabd.ttf
p1760
sg20
g21
sbag1
(g8
g3
NtRp1761
(dp1762
g11
g12
sg13
S'Segoe UI'
p1763
sg15
I400
sg16
g12
sg17
g12
sg18
Vc:\u005cwindows\u005cfonts\u005cseguibl.ttf
p1764
sg20
g21
sbag1
(g8
g3
NtRp1765
(dp1766
g11
g12
sg13
S'Adobe Song Std'
p1767
sg15
I400
sg16
g12
sg17
g12
sg18
VC:\u005cWindows\u005cFonts\u005cAdobeSongStd-Light.otf
p1768
sg20
g21
sbag1
(g8
g3
NtRp1769
(dp1770
g11
g12
sg13
S'Microsoft Uighur'
p1771
sg15
I400
sg16
g12
sg17
g12
sg18
VC:\u005cWindows\u005cFonts\u005cmsuighur.ttf
p1772
sg20
g21
sbag1
(g8
g3
NtRp1773
(dp1774
g11
g12
sg13
S'Minion Pro'
p1775
sg15
I400
sg16
g12
sg17
g12
sg18
Vc:\u005cwindows\u005cfonts\u005cminionpro-regular.otf
p1776
sg20
g21
sbag1
(g8
g3
NtRp1777
(dp1778
g11
g12
sg13
S'Courier New'
p1779
sg15
I700
sg16
g12
sg17
g12
sg18
VC:\u005cWindows\u005cFonts\u005ccourbd.ttf
p1780
sg20
g21
sbag1
(g8
g3
NtRp1781
(dp1782
g11
g12
sg13
S'Minion Pro'
p1783
sg15
I700
sg16
g203
sg17
g12
sg18
Vc:\u005cwindows\u005cfonts\u005cminionpro-boldcn.otf
p1784
sg20
g21
sbag1
(g8
g3
NtRp1785
(dp1786
g11
g12
sg13
S'Kozuka Gothic Pr6N'
p1787
sg15
I700
sg16
g12
sg17
g12
sg18
Vc:\u005cwindows\u005cfonts\u005ckozgopr6n-heavy.otf
p1788
sg20
g21
sbag1
(g8
g3
NtRp1789
(dp1790
g11
g12
sg13
S'Gisha'
p1791
sg15
I400
sg16
g12
sg17
g12
sg18
Vc:\u005cwindows\u005cfonts\u005cgisha.ttf
p1792
sg20
g21
sbag1
(g8
g3
NtRp1793
(dp1794
g11
g12
sg13
S'Britannic Bold'
p1795
sg15
I700
sg16
g12
sg17
g12
sg18
Vc:\u005cwindows\u005cfonts\u005cbritanic.ttf
p1796
sg20
g21
sbag1
(g8
g3
NtRp1797
(dp1798
g11
g12
sg13
S'Kozuka Mincho Pr6N'
p1799
sg15
I700
sg16
g12
sg17
g12
sg18
VC:\u005cWindows\u005cFonts\u005cKozMinPr6N-Heavy.otf
p1800
sg20
g21
sbag1
(g8
g3
NtRp1801
(dp1802
g11
g12
sg13
S'Calisto MT'
p1803
sg15
I400
sg16
g12
sg17
g12
sg18
Vc:\u005cwindows\u005cfonts\u005ccalist.ttf
p1804
sg20
g21
sbag1
(g8
g3
NtRp1805
(dp1806
g11
g12
sg13
S'Curlz MT'
p1807
sg15
I400
sg16
g12
sg17
g12
sg18
Vc:\u005cwindows\u005cfonts\u005ccurlz___.ttf
p1808
sg20
g21
sbag1
(g8
g3
NtRp1809
(dp1810
g11
g28
sg13
S'Arial'
p1811
sg15
I700
sg16
g12
sg17
g12
sg18
Vc:\u005cwindows\u005cfonts\u005carialbi.ttf
p1812
sg20
g21
sbag1
(g8
g3
NtRp1813
(dp1814
g11
g12
sg13
S'Tunga'
p1815
sg15
I400
sg16
g12
sg17
g12
sg18
VC:\u005cWindows\u005cFonts\u005ctunga.ttf
p1816
sg20
g21
sbag1
(g8
g3
NtRp1817
(dp1818
g11
g28
sg13
S'Bookman Old Style'
p1819
sg15
I400
sg16
g12
sg17
g12
sg18
VC:\u005cWindows\u005cFonts\u005cBOOKOSI.TTF
p1820
sg20
g21
sbag1
(g8
g3
NtRp1821
(dp1822
g11
g12
sg13
S'Kozuka Gothic Pr6N'
p1823
sg15
I400
sg16
g12
sg17
g12
sg18
Vc:\u005cwindows\u005cfonts\u005ckozgopr6n-medium.otf
p1824
sg20
g21
sbag1
(g8
g3
NtRp1825
(dp1826
g11
g12
sg13
S'Myriad Arabic'
p1827
sg15
I400
sg16
g12
sg17
g12
sg18
Vc:\u005cwindows\u005cfonts\u005cmyriadarabic-regular.otf
p1828
sg20
g21
sbag1
(g8
g3
NtRp1829
(dp1830
g11
g12
sg13
S'Californian FB'
p1831
sg15
I700
sg16
g12
sg17
g12
sg18
VC:\u005cWindows\u005cFonts\u005cCALIFB.TTF
p1832
sg20
g21
sbag1
(g8
g3
NtRp1833
(dp1834
g11
g12
sg13
S'Lithos Pro'
p1835
sg15
I400
sg16
g12
sg17
g12
sg18
VC:\u005cWindows\u005cFonts\u005cLithosPro-Regular.otf
p1836
sg20
g21
sbag1
(g8
g3
NtRp1837
(dp1838
g11
g12
sg13
S'SimSun-ExtB'
p1839
sg15
I400
sg16
g12
sg17
g12
sg18
Vc:\u005cwindows\u005cfonts\u005csimsunb.ttf
p1840
sg20
g21
sbag1
(g8
g3
NtRp1841
(dp1842
g11
g12
sg13
S'Tw Cen MT Condensed Extra Bold'
p1843
sg15
I700
sg16
g203
sg17
g12
sg18
VC:\u005cWindows\u005cFonts\u005cTCCEB.TTF
p1844
sg20
g21
sbag1
(g8
g3
NtRp1845
(dp1846
g11
g12
sg13
S'MS Reference Sans Serif'
p1847
sg15
I400
sg16
g12
sg17
g12
sg18
VC:\u005cWindows\u005cFonts\u005cREFSAN.TTF
p1848
sg20
g21
sbag1
(g8
g3
NtRp1849
(dp1850
g11
g28
sg13
S'Chaparral Pro'
p1851
sg15
I200
sg16
g12
sg17
g12
sg18
VC:\u005cWindows\u005cFonts\u005cChaparralPro-LightIt.otf
p1852
sg20
g21
sbag1
(g8
g3
NtRp1853
(dp1854
g11
g12
sg13
S'Traditional Arabic'
p1855
sg15
I400
sg16
g12
sg17
g12
sg18
VC:\u005cWindows\u005cFonts\u005ctrado.ttf
p1856
sg20
g21
sbag1
(g8
g3
NtRp1857
(dp1858
g11
g12
sg13
S'Adobe Arabic'
p1859
sg15
I700
sg16
g12
sg17
g12
sg18
Vc:\u005cwindows\u005cfonts\u005cadobearabic-bold.otf
p1860
sg20
g21
sbag1
(g8
g3
NtRp1861
(dp1862
g11
g12
sg13
S'Bauhaus 93'
p1863
sg15
I400
sg16
g12
sg17
g12
sg18
Vc:\u005cwindows\u005cfonts\u005cbauhs93.ttf
p1864
sg20
g21
sbag1
(g8
g3
NtRp1865
(dp1866
g11
g28
sg13
S'Adobe Arabic'
p1867
sg15
I400
sg16
g12
sg17
g12
sg18
Vc:\u005cwindows\u005cfonts\u005cadobearabic-italic.otf
p1868
sg20
g21
sbag1
(g8
g3
NtRp1869
(dp1870
g11
g28
sg13
S'Lucida Calligraphy'
p1871
sg15
I400
sg16
g12
sg17
g12
sg18
Vc:\u005cwindows\u005cfonts\u005clcallig.ttf
p1872
sg20
g21
sbag1
(g8
g3
NtRp1873
(dp1874
g11
g33
sg13
S'Lucida Sans Typewriter'
p1875
sg15
I700
sg16
g12
sg17
g12
sg18
VC:\u005cWindows\u005cFonts\u005cLTYPEBO.TTF
p1876
sg20
g21
sbag1
(g8
g3
NtRp1877
(dp1878
g11
g12
sg13
S'Rosewood Std'
p1879
sg15
I400
sg16
g12
sg17
g12
sg18
Vc:\u005cwindows\u005cfonts\u005crosewoodstd-regular.otf
p1880
sg20
g21
sbag1
(g8
g3
NtRp1881
(dp1882
g11
g12
sg13
S'Miriam'
p1883
sg15
I400
sg16
g12
sg17
g12
sg18
Vc:\u005cwindows\u005cfonts\u005cmriam.ttf
p1884
sg20
g21
sbag1
(g8
g3
NtRp1885
(dp1886
g11
g12
sg13
S'Leelawadee UI'
p1887
sg15
I700
sg16
g12
sg17
g12
sg18
Vc:\u005cwindows\u005cfonts\u005cleelauib.ttf
p1888
sg20
g21
sbag1
(g8
g3
NtRp1889
(dp1890
g11
g12
sg13
S'Microsoft Uighur'
p1891
sg15
I700
sg16
g12
sg17
g12
sg18
Vc:\u005cwindows\u005cfonts\u005cmsuighub.ttf
p1892
sg20
g21
sbag1
(g8
g3
NtRp1893
(dp1894
g11
g28
sg13
S'Adobe Arabic'
p1895
sg15
I700
sg16
g12
sg17
g12
sg18
VC:\u005cWindows\u005cFonts\u005cAdobeArabic-BoldItalic.otf
p1896
sg20
g21
sbag1
(g8
g3
NtRp1897
(dp1898
g11
g12
sg13
S'Comic Sans MS'
p1899
sg15
I700
sg16
g12
sg17
g12
sg18
Vc:\u005cwindows\u005cfonts\u005ccomicbd.ttf
p1900
sg20
g21
sbag1
(g8
g3
NtRp1901
(dp1902
g11
g12
sg13
S'Kozuka Mincho Pr6N'
p1903
sg15
I700
sg16
g12
sg17
g12
sg18
Vc:\u005cwindows\u005cfonts\u005ckozminpr6n-heavy.otf
p1904
sg20
g21
sbag1
(g8
g3
NtRp1905
(dp1906
g11
g12
sg13
S'Candara'
p1907
sg15
I700
sg16
g12
sg17
g12
sg18
Vc:\u005cwindows\u005cfonts\u005ccandarab.ttf
p1908
sg20
g21
sbag1
(g8
g3
NtRp1909
(dp1910
g11
g12
sg13
S'Modern No. 20'
p1911
sg15
I400
sg16
g12
sg17
g12
sg18
VC:\u005cWindows\u005cFonts\u005cMOD20.TTF
p1912
sg20
g21
sbag1
(g8
g3
NtRp1913
(dp1914
g11
g12
sg13
S'Adobe Gothic Std'
p1915
sg15
I700
sg16
g12
sg17
g12
sg18
VC:\u005cWindows\u005cFonts\u005cAdobeGothicStd-Bold.otf
p1916
sg20
g21
sbag1
(g8
g3
NtRp1917
(dp1918
g11
g12
sg13
S'Ebrima'
p1919
sg15
I400
sg16
g12
sg17
g12
sg18
VC:\u005cWindows\u005cFonts\u005cebrima.ttf
p1920
sg20
g21
sbag1
(g8
g3
NtRp1921
(dp1922
g11
g12
sg13
S'Lucida Sans Typewriter'
p1923
sg15
I400
sg16
g12
sg17
g12
sg18
VC:\u005cWindows\u005cFonts\u005cLTYPE.TTF
p1924
sg20
g21
sbag1
(g8
g3
NtRp1925
(dp1926
g11
g12
sg13
S'Adobe Garamond Pro'
p1927
sg15
I700
sg16
g12
sg17
g12
sg18
VC:\u005cWindows\u005cFonts\u005cAGaramondPro-Bold.otf
p1928
sg20
g21
sbag1
(g8
g3
NtRp1929
(dp1930
g11
g28
sg13
S'JasmineUPC'
p1931
sg15
I700
sg16
g12
sg17
g12
sg18
Vc:\u005cwindows\u005cfonts\u005cupcjbi.ttf
p1932
sg20
g21
sbag1
(g8
g3
NtRp1933
(dp1934
g11
g33
sg13
S'Lucida Sans Typewriter'
p1935
sg15
I400
sg16
g12
sg17
g12
sg18
Vc:\u005cwindows\u005cfonts\u005cltypeo.ttf
p1936
sg20
g21
sbag1
(g8
g3
NtRp1937
(dp1938
g11
g28
sg13
S'Georgia'
p1939
sg15
I700
sg16
g12
sg17
g12
sg18
VC:\u005cWindows\u005cFonts\u005cgeorgiaz.ttf
p1940
sg20
g21
sbag1
(g8
g3
NtRp1941
(dp1942
g11
g12
sg13
S'OCR A Std'
p1943
sg15
I400
sg16
g12
sg17
g12
sg18
Vc:\u005cwindows\u005cfonts\u005cocrastd.otf
p1944
sg20
g21
sbag1
(g8
g3
NtRp1945
(dp1946
g11
g12
sg13
S'Myanmar Text'
p1947
sg15
I700
sg16
g12
sg17
g12
sg18
VC:\u005cWindows\u005cFonts\u005cmmrtextb.ttf
p1948
sg20
g21
sbag1
(g8
g3
NtRp1949
(dp1950
g11
g12
sg13
S'Tw Cen MT'
p1951
sg15
I400
sg16
g12
sg17
g12
sg18
VC:\u005cWindows\u005cFonts\u005cTCM_____.TTF
p1952
sg20
g21
sbag1
(g8
g3
NtRp1953
(dp1954
g11
g12
sg13
S'Goudy Stout'
p1955
sg15
I400
sg16
g12
sg17
g12
sg18
Vc:\u005cwindows\u005cfonts\u005cgoudysto.ttf
p1956
sg20
g21
sbag1
(g8
g3
NtRp1957
(dp1958
g11
g12
sg13
S'Adobe Myungjo Std'
p1959
sg15
I400
sg16
g12
sg17
g12
sg18
VC:\u005cWindows\u005cFonts\u005cAdobeMyungjoStd-Medium.otf
p1960
sg20
g21
sbag1
(g8
g3
NtRp1961
(dp1962
g11
g12
sg13
S'Perpetua Titling MT'
p1963
sg15
I200
sg16
g12
sg17
g12
sg18
Vc:\u005cwindows\u005cfonts\u005cpertili.ttf
p1964
sg20
g21
sbag1
(g8
g3
NtRp1965
(dp1966
g11
g28
sg13
S'Aparajita'
p1967
sg15
I400
sg16
g12
sg17
g12
sg18
VC:\u005cWindows\u005cFonts\u005caparaji.ttf
p1968
sg20
g21
sbag1
(g8
g3
NtRp1969
(dp1970
g11
g28
sg13
S'Calibri'
p1971
sg15
I200
sg16
g12
sg17
g12
sg18
Vc:\u005cwindows\u005cfonts\u005ccalibrili.ttf
p1972
sg20
g21
sbag1
(g8
g3
NtRp1973
(dp1974
g11
g12
sg13
S'David'
p1975
sg15
I400
sg16
g12
sg17
g12
sg18
VC:\u005cWindows\u005cFonts\u005cdavid.ttf
p1976
sg20
g21
sbag1
(g8
g3
NtRp1977
(dp1978
g11
g12
sg13
S'Gigi'
p1979
sg15
I400
sg16
g12
sg17
g12
sg18
VC:\u005cWindows\u005cFonts\u005cGIGI.TTF
p1980
sg20
g21
sbag1
(g8
g3
NtRp1981
(dp1982
g11
g12
sg13
S'Book Antiqua'
p1983
sg15
I700
sg16
g12
sg17
g12
sg18
Vc:\u005cwindows\u005cfonts\u005cantquab.ttf
p1984
sg20
g21
sbag1
(g8
g3
NtRp1985
(dp1986
g11
g12
sg13
S'Rockwell Condensed'
p1987
sg15
I700
sg16
g203
sg17
g12
sg18
VC:\u005cWindows\u005cFonts\u005cROCCB___.TTF
p1988
sg20
g21
sbag1
(g8
g3
NtRp1989
(dp1990
g11
g28
sg13
S'Adobe Hebrew'
p1991
sg15
I400
sg16
g12
sg17
g12
sg18
VC:\u005cWindows\u005cFonts\u005cAdobeHebrew-Italic.otf
p1992
sg20
g21
sbag1
(g8
g3
NtRp1993
(dp1994
g11
g12
sg13
S'Californian FB'
p1995
sg15
I400
sg16
g12
sg17
g12
sg18
VC:\u005cWindows\u005cFonts\u005cCALIFR.TTF
p1996
sg20
g21
sbag1
(g8
g3
NtRp1997
(dp1998
g11
g12
sg13
S'Kozuka Gothic Pro'
p1999
sg15
I400
sg16
g12
sg17
g12
sg18
VC:\u005cWindows\u005cFonts\u005cKozGoPro-Medium.otf
p2000
sg20
g21
sbag1
(g8
g3
NtRp2001
(dp2002
g11
g28
sg13
S'Adobe Caslon Pro'
p2003
sg15
I700
sg16
g12
sg17
g12
sg18
Vc:\u005cwindows\u005cfonts\u005cacaslonpro-semibolditalic.otf
p2004
sg20
g21
sbag1
(g8
g3
NtRp2005
(dp2006
g11
g28
sg13
S'Candara'
p2007
sg15
I400
sg16
g12
sg17
g12
sg18
Vc:\u005cwindows\u005cfonts\u005ccandarai.ttf
p2008
sg20
g21
sbag1
(g8
g3
NtRp2009
(dp2010
g11
g12
sg13
S'Franklin Gothic Book'
p2011
sg15
I400
sg16
g12
sg17
g12
sg18
Vc:\u005cwindows\u005cfonts\u005cfrabk.ttf
p2012
sg20
g21
sbag1
(g8
g3
NtRp2013
(dp2014
g11
g12
sg13
S'Aparajita'
p2015
sg15
I400
sg16
g12
sg17
g12
sg18
Vc:\u005cwindows\u005cfonts\u005caparaj.ttf
p2016
sg20
g21
sbag1
(g8
g3
NtRp2017
(dp2018
g11
g12
sg13
S'Kozuka Mincho Pr6N'
p2019
sg15
I700
sg16
g12
sg17
g12
sg18
VC:\u005cWindows\u005cFonts\u005cKozMinPr6N-Bold.otf
p2020
sg20
g21
sbag1
(g8
g3
NtRp2021
(dp2022
g11
g12
sg13
S'Leelawadee UI'
p2023
sg15
I700
sg16
g12
sg17
g12
sg18
VC:\u005cWindows\u005cFonts\u005cLeelaUIb.ttf
p2024
sg20
g21
sbag1
(g8
g3
NtRp2025
(dp2026
g11
g12
sg13
S'Myriad Pro'
p2027
sg15
I700
sg16
g12
sg17
g12
sg18
Vc:\u005cwindows\u005cfonts\u005cmyriadpro-semibold.otf
p2028
sg20
g21
sbag1
(g8
g3
NtRp2029
(dp2030
g11
g12
sg13
S'Eras Light ITC'
p2031
sg15
I200
sg16
g12
sg17
g12
sg18
Vc:\u005cwindows\u005cfonts\u005ceraslght.ttf
p2032
sg20
g21
sbag1
(g8
g3
NtRp2033
(dp2034
g11
g28
sg13
S'Tw Cen MT'
p2035
sg15
I700
sg16
g12
sg17
g12
sg18
VC:\u005cWindows\u005cFonts\u005cTCBI____.TTF
p2036
sg20
g21
sbag1
(g8
g3
NtRp2037
(dp2038
g11
g12
sg13
S'Kozuka Gothic Pro'
p2039
sg15
I400
sg16
g12
sg17
g12
sg18
VC:\u005cWindows\u005cFonts\u005cKozGoPro-Light.otf
p2040
sg20
g21
sbag1
(g8
g3
NtRp2041
(dp2042
g11
g12
sg13
S'Lithos Pro'
p2043
sg15
I900
sg16
g12
sg17
g12
sg18
VC:\u005cWindows\u005cFonts\u005cLithosPro-Black.otf
p2044
sg20
g21
sbag1
(g8
g3
NtRp2045
(dp2046
g11
g12
sg13
S'Mesquite Std'
p2047
sg15
I500
sg16
g12
sg17
g12
sg18
Vc:\u005cwindows\u005cfonts\u005cmesquitestd.otf
p2048
sg20
g21
sbag1
(g8
g3
NtRp2049
(dp2050
g11
g12
sg13
S'Perpetua Titling MT'
p2051
sg15
I700
sg16
g12
sg17
g12
sg18
Vc:\u005cwindows\u005cfonts\u005cpertibd.ttf
p2052
sg20
g21
sbag1
(g8
g3
NtRp2053
(dp2054
g11
g12
sg13
S'Tunga'
p2055
sg15
I700
sg16
g12
sg17
g12
sg18
Vc:\u005cwindows\u005cfonts\u005ctungab.ttf
p2056
sg20
g21
sbag1
(g8
g3
NtRp2057
(dp2058
g11
g28
sg13
S'Utsaah'
p2059
sg15
I700
sg16
g12
sg17
g12
sg18
VC:\u005cWindows\u005cFonts\u005cutsaahbi.ttf
p2060
sg20
g21
sbag1
(g8
g3
NtRp2061
(dp2062
g11
g28
sg13
S'Elephant'
p2063
sg15
I400
sg16
g12
sg17
g12
sg18
Vc:\u005cwindows\u005cfonts\u005celephnti.ttf
p2064
sg20
g21
sbag1
(g8
g3
NtRp2065
(dp2066
g11
g28
sg13
S'Times New Roman'
p2067
sg15
I500
sg16
g12
sg17
g12
sg18
VC:\u005cWindows\u005cFonts\u005ctimesi.ttf
p2068
sg20
g21
sbag1
(g8
g3
NtRp2069
(dp2070
g11
g28
sg13
S'Century Gothic'
p2071
sg15
I700
sg16
g12
sg17
g12
sg18
Vc:\u005cwindows\u005cfonts\u005cgothicbi.ttf
p2072
sg20
g21
sbag1
(g8
g3
NtRp2073
(dp2074
g11
g12
sg13
S'Gabriola'
p2075
sg15
I400
sg16
g12
sg17
g12
sg18
VC:\u005cWindows\u005cFonts\u005cGabriola.ttf
p2076
sg20
g21
sbag1
(g8
g3
NtRp2077
(dp2078
g11
g28
sg13
S'Adobe Garamond Pro'
p2079
sg15
I400
sg16
g12
sg17
g12
sg18
Vc:\u005cwindows\u005cfonts\u005cagaramondpro-italic.otf
p2080
sg20
g21
sbag1
(g8
g3
NtRp2081
(dp2082
g11
g12
sg13
S'Harrington'
p2083
sg15
I400
sg16
g12
sg17
g12
sg18
Vc:\u005cwindows\u005cfonts\u005charngton.ttf
p2084
sg20
g21
sbag1
(g8
g3
NtRp2085
(dp2086
g11
g12
sg13
S'Gill Sans Ultra Bold'
p2087
sg15
I700
sg16
g12
sg17
g12
sg18
VC:\u005cWindows\u005cFonts\u005cGILSANUB.TTF
p2088
sg20
g21
sbag1
(g8
g3
NtRp2089
(dp2090
g11
g12
sg13
S'Iskoola Pota'
p2091
sg15
I400
sg16
g12
sg17
g12
sg18
Vc:\u005cwindows\u005cfonts\u005ciskpota.ttf
p2092
sg20
g21
sbag1
(g8
g3
NtRp2093
(dp2094
g11
g12
sg13
S'Bodoni MT'
p2095
sg15
I700
sg16
g203
sg17
g12
sg18
VC:\u005cWindows\u005cFonts\u005cBOD_CB.TTF
p2096
sg20
g21
sbag1
(g8
g3
NtRp2097
(dp2098
g11
g12
sg13
S'Engravers MT'
p2099
sg15
I400
sg16
g12
sg17
g12
sg18
VC:\u005cWindows\u005cFonts\u005cENGR.TTF
p2100
sg20
g21
sbag1
(g8
g3
NtRp2101
(dp2102
g11
g28
sg13
S'Candara'
p2103
sg15
I400
sg16
g12
sg17
g12
sg18
VC:\u005cWindows\u005cFonts\u005cCandarai.ttf
p2104
sg20
g21
sbag1
(g8
g3
NtRp2105
(dp2106
g11
g28
sg13
S'Consolas'
p2107
sg15
I400
sg16
g12
sg17
g12
sg18
VC:\u005cWindows\u005cFonts\u005cconsolai.ttf
p2108
sg20
g21
sbag1
(g8
g3
NtRp2109
(dp2110
g11
g33
sg13
S'Tekton Pro'
p2111
sg15
I700
sg16
g12
sg17
g12
sg18
Vc:\u005cwindows\u005cfonts\u005ctektonpro-boldobl.otf
p2112
sg20
g21
sbag1
(g8
g3
NtRp2113
(dp2114
g11
g28
sg13
S'Garamond'
p2115
sg15
I400
sg16
g12
sg17
g12
sg18
Vc:\u005cwindows\u005cfonts\u005cgarait.ttf
p2116
sg20
g21
sbag1
(g8
g3
NtRp2117
(dp2118
g11
g12
sg13
S'Adobe Kaiti Std'
p2119
sg15
I400
sg16
g12
sg17
g12
sg18
VC:\u005cWindows\u005cFonts\u005cAdobeKaitiStd-Regular.otf
p2120
sg20
g21
sbag1
(g8
g3
NtRp2121
(dp2122
g11
g12
sg13
S'Gill Sans MT'
p2123
sg15
I700
sg16
g12
sg17
g12
sg18
Vc:\u005cwindows\u005cfonts\u005cgilb____.ttf
p2124
sg20
g21
sbag1
(g8
g3
NtRp2125
(dp2126
g11
g12
sg13
S'Tekton Pro'
p2127
sg15
I700
sg16
g12
sg17
g12
sg18
Vc:\u005cwindows\u005cfonts\u005ctektonpro-boldext.otf
p2128
sg20
g21
sbag1
(g8
g3
NtRp2129
(dp2130
g11
g12
sg13
S'Adobe Ming Std'
p2131
sg15
I400
sg16
g12
sg17
g12
sg18
VC:\u005cWindows\u005cFonts\u005cAdobeMingStd-Light.otf
p2132
sg20
g21
sbag1
(g8
g3
NtRp2133
(dp2134
g11
g12
sg13
S'Century'
p2135
sg15
I400
sg16
g12
sg17
g12
sg18
Vc:\u005cwindows\u005cfonts\u005ccentury.ttf
p2136
sg20
g21
sbag1
(g8
g3
NtRp2137
(dp2138
g11
g28
sg13
S'Minion Pro'
p2139
sg15
I700
sg16
g12
sg17
g12
sg18
VC:\u005cWindows\u005cFonts\u005cMinionPro-SemiboldIt.otf
p2140
sg20
g21
sbag1
(g8
g3
NtRp2141
(dp2142
g11
g12
sg13
S'Nirmala UI'
p2143
sg15
I400
sg16
g12
sg17
g12
sg18
VC:\u005cWindows\u005cFonts\u005cNirmala.ttf
p2144
sg20
g21
sbag1
(g8
g3
NtRp2145
(dp2146
g11
g28
sg13
S'Nueva Std'
p2147
sg15
I400
sg16
g203
sg17
g12
sg18
VC:\u005cWindows\u005cFonts\u005cNuevaStd-CondItalic.otf
p2148
sg20
g21
sbag1
(g8
g3
NtRp2149
(dp2150
g11
g12
sg13
S'Bauhaus 93'
p2151
sg15
I400
sg16
g12
sg17
g12
sg18
VC:\u005cWindows\u005cFonts\u005cBAUHS93.TTF
p2152
sg20
g21
sbag1
(g8
g3
NtRp2153
(dp2154
g11
g12
sg13
S'Mongolian Baiti'
p2155
sg15
I400
sg16
g12
sg17
g12
sg18
VC:\u005cWindows\u005cFonts\u005cmonbaiti.ttf
p2156
sg20
g21
sbag1
(g8
g3
NtRp2157
(dp2158
g11
g12
sg13
S'Arial'
p2159
sg15
I700
sg16
g203
sg17
g12
sg18
Vc:\u005cwindows\u005cfonts\u005carialnb.ttf
p2160
sg20
g21
sbag1
(g8
g3
NtRp2161
(dp2162
g11
g12
sg13
S'MS Outlook'
p2163
sg15
I400
sg16
g12
sg17
g12
sg18
Vc:\u005cwindows\u005cfonts\u005coutlook.ttf
p2164
sg20
g21
sbag1
(g8
g3
NtRp2165
(dp2166
g11
g28
sg13
S'Lucida Fax'
p2167
sg15
I700
sg16
g12
sg17
g12
sg18
Vc:\u005cwindows\u005cfonts\u005clfaxdi.ttf
p2168
sg20
g21
sbag1
(g8
g3
NtRp2169
(dp2170
g11
g12
sg13
S'Candara'
p2171
sg15
I400
sg16
g12
sg17
g12
sg18
Vc:\u005cwindows\u005cfonts\u005ccandara.ttf
p2172
sg20
g21
sbag1
(g8
g3
NtRp2173
(dp2174
g11
g12
sg13
S'Adobe Naskh'
p2175
sg15
I500
sg16
g12
sg17
g12
sg18
VC:\u005cWindows\u005cFonts\u005cAdobeNaskh-Medium.otf
p2176
sg20
g21
sbag1
(g8
g3
NtRp2177
(dp2178
g11
g12
sg13
S'Copperplate Gothic Light'
p2179
sg15
I200
sg16
g12
sg17
g12
sg18
VC:\u005cWindows\u005cFonts\u005cCOPRGTL.TTF
p2180
sg20
g21
sbag1
(g8
g3
NtRp2181
(dp2182
g11
g12
sg13
S'Kozuka Mincho Pro'
p2183
sg15
I400
sg16
g12
sg17
g12
sg18
VC:\u005cWindows\u005cFonts\u005cKozMinPro-Medium.otf
p2184
sg20
g21
sbag1
(g8
g3
NtRp2185
(dp2186
g11
g12
sg13
S'Vijaya'
p2187
sg15
I400
sg16
g12
sg17
g12
sg18
Vc:\u005cwindows\u005cfonts\u005cvijaya.ttf
p2188
sg20
g21
sbag1
(g8
g3
NtRp2189
(dp2190
g11
g12
sg13
S'Arial'
p2191
sg15
I400
sg16
g203
sg17
g12
sg18
Vc:\u005cwindows\u005cfonts\u005carialn.ttf
p2192
sg20
g21
sbag1
(g8
g3
NtRp2193
(dp2194
g11
g12
sg13
S'Colonna MT'
p2195
sg15
I400
sg16
g12
sg17
g12
sg18
Vc:\u005cwindows\u005cfonts\u005ccolonna.ttf
p2196
sg20
g21
sbag1
(g8
g3
NtRp2197
(dp2198
g11
g28
sg13
S'Cordia New'
p2199
sg15
I400
sg16
g12
sg17
g12
sg18
VC:\u005cWindows\u005cFonts\u005ccordiai.ttf
p2200
sg20
g21
sbag1
(g8
g3
NtRp2201
(dp2202
g11
g12
sg13
S'Segoe UI'
p2203
sg15
I400
sg16
g12
sg17
g12
sg18
VC:\u005cWindows\u005cFonts\u005csegoeuil.ttf
p2204
sg20
g21
sbag1
(g8
g3
NtRp2205
(dp2206
g11
g28
sg13
S'Minion Pro'
p2207
sg15
I700
sg16
g12
sg17
g12
sg18
Vc:\u005cwindows\u005cfonts\u005cminionpro-boldit.otf
p2208
sg20
g21
sbag1
(g8
g3
NtRp2209
(dp2210
g11
g12
sg13
S'Lucida Fax'
p2211
sg15
I400
sg16
g12
sg17
g12
sg18
Vc:\u005cwindows\u005cfonts\u005clfax.ttf
p2212
sg20
g21
sbag1
(g8
g3
NtRp2213
(dp2214
g11
g12
sg13
S'Minion Pro'
p2215
sg15
I500
sg16
g12
sg17
g12
sg18
VC:\u005cWindows\u005cFonts\u005cMinionPro-Medium.otf
p2216
sg20
g21
sbag1
(g8
g3
NtRp2217
(dp2218
g11
g28
sg13
S'Gill Sans MT'
p2219
sg15
I400
sg16
g12
sg17
g12
sg18
VC:\u005cWindows\u005cFonts\u005cGILI____.TTF
p2220
sg20
g21
sbag1
(g8
g3
NtRp2221
(dp2222
g11
g12
sg13
S'Sakkal Majalla'
p2223
sg15
I700
sg16
g12
sg17
g12
sg18
VC:\u005cWindows\u005cFonts\u005cmajallab.ttf
p2224
sg20
g21
sbag1
(g8
g3
NtRp2225
(dp2226
g11
g28
sg13
S'Rage Italic'
p2227
sg15
I400
sg16
g12
sg17
g12
sg18
VC:\u005cWindows\u005cFonts\u005cRAGE.TTF
p2228
sg20
g21
sbag1
(g8
g3
NtRp2229
(dp2230
g11
g12
sg13
S'Haettenschweiler'
p2231
sg15
I400
sg16
g12
sg17
g12
sg18
Vc:\u005cwindows\u005cfonts\u005chatten.ttf
p2232
sg20
g21
sbag1
(g8
g3
NtRp2233
(dp2234
g11
g12
sg13
S'Adobe Gothic Std'
p2235
sg15
I700
sg16
g12
sg17
g12
sg18
Vc:\u005cwindows\u005cfonts\u005cadobegothicstd-bold.otf
p2236
sg20
g21
sbag1
(g8
g3
NtRp2237
(dp2238
g11
g28
sg13
S'Perpetua'
p2239
sg15
I700
sg16
g12
sg17
g12
sg18
VC:\u005cWindows\u005cFonts\u005cPERBI___.TTF
p2240
sg20
g21
sbag1
(g8
g3
NtRp2241
(dp2242
g11
g28
sg13
S'Myriad Hebrew'
p2243
sg15
I400
sg16
g12
sg17
g12
sg18
VC:\u005cWindows\u005cFonts\u005cMyriadHebrew-It.otf
p2244
sg20
g21
sbag1
(g8
g3
NtRp2245
(dp2246
g11
g28
sg13
S'Cooper Std'
p2247
sg15
I900
sg16
g12
sg17
g12
sg18
VC:\u005cWindows\u005cFonts\u005cCooperBlackStd-Italic.otf
p2248
sg20
g21
sbag1
(g8
g3
NtRp2249
(dp2250
g11
g12
sg13
S'JasmineUPC'
p2251
sg15
I400
sg16
g12
sg17
g12
sg18
Vc:\u005cwindows\u005cfonts\u005cupcjl.ttf
p2252
sg20
g21
sbag1
(g8
g3
NtRp2253
(dp2254
g11
g28
sg13
S'Orator Std'
p2255
sg15
I400
sg16
g12
sg17
g12
sg18
VC:\u005cWindows\u005cFonts\u005cOratorStd-Slanted.otf
p2256
sg20
g21
sbag1
(g8
g3
NtRp2257
(dp2258
g11
g12
sg13
S'Shonar Bangla'
p2259
sg15
I400
sg16
g12
sg17
g12
sg18
VC:\u005cWindows\u005cFonts\u005cShonar.ttf
p2260
sg20
g21
sbag1
(g8
g3
NtRp2261
(dp2262
g11
g12
sg13
S'Berlin Sans FB'
p2263
sg15
I400
sg16
g12
sg17
g12
sg18
Vc:\u005cwindows\u005cfonts\u005cbrlnsr.ttf
p2264
sg20
g21
sbag1
(g8
g3
NtRp2265
(dp2266
g11
g12
sg13
S'Wide Latin'
p2267
sg15
I400
sg16
Vexpanded
p2268
sg17
g12
sg18
VC:\u005cWindows\u005cFonts\u005cLATINWD.TTF
p2269
sg20
g21
sbag1
(g8
g3
NtRp2270
(dp2271
g11
g12
sg13
S'Kozuka Gothic Pr6N'
p2272
sg15
I400
sg16
g12
sg17
g12
sg18
VC:\u005cWindows\u005cFonts\u005cKozGoPr6N-Light.otf
p2273
sg20
g21
sbag1
(g8
g3
NtRp2274
(dp2275
g11
g12
sg13
S'Bookshelf Symbol 7'
p2276
sg15
I400
sg16
g12
sg17
g12
sg18
VC:\u005cWindows\u005cFonts\u005cBSSYM7.TTF
p2277
sg20
g21
sbag1
(g8
g3
NtRp2278
(dp2279
g11
g12
sg13
S'Prestige Elite Std'
p2280
sg15
I700
sg16
g12
sg17
g12
sg18
VC:\u005cWindows\u005cFonts\u005cPrestigeEliteStd-Bd.otf
p2281
sg20
g21
sbag1
(g8
g3
NtRp2282
(dp2283
g11
g12
sg13
S'Bell MT'
p2284
sg15
I400
sg16
g12
sg17
g12
sg18
Vc:\u005cwindows\u005cfonts\u005cbell.ttf
p2285
sg20
g21
sbag1
(g8
g3
NtRp2286
(dp2287
g11
g12
sg13
S'MT Extra'
p2288
sg15
I400
sg16
g12
sg17
g12
sg18
Vc:\u005cprogram files\u005ccommon files\u005cmicrosoft shared\u005cequation\u005cmtextra.ttf
p2289
sg20
g21
sbag1
(g8
g3
NtRp2290
(dp2291
g11
g12
sg13
S'Papyrus'
p2292
sg15
I400
sg16
g12
sg17
g12
sg18
Vc:\u005cwindows\u005cfonts\u005cpapyrus.ttf
p2293
sg20
g21
sbag1
(g8
g3
NtRp2294
(dp2295
g11
g28
sg13
S'Corbel'
p2296
sg15
I700
sg16
g12
sg17
g12
sg18
VC:\u005cWindows\u005cFonts\u005ccorbelz.ttf
p2297
sg20
g21
sbag1
(g8
g3
NtRp2298
(dp2299
g11
g28
sg13
S'Myriad Pro'
p2300
sg15
I700
sg16
g12
sg17
g12
sg18
Vc:\u005cwindows\u005cfonts\u005cmyriadpro-semiboldit.otf
p2301
sg20
g21
sbag1
(g8
g3
NtRp2302
(dp2303
g11
g33
sg13
S'Tekton Pro'
p2304
sg15
I700
sg16
g12
sg17
g12
sg18
VC:\u005cWindows\u005cFonts\u005cTektonPro-BoldObl.otf
p2305
sg20
g21
sbag1
(g8
g3
NtRp2306
(dp2307
g11
g12
sg13
S'Bodoni MT'
p2308
sg15
I700
sg16
g12
sg17
g12
sg18
VC:\u005cWindows\u005cFonts\u005cBOD_B.TTF
p2309
sg20
g21
sbag1
(g8
g3
NtRp2310
(dp2311
g11
g12
sg13
S'Blackoak Std'
p2312
sg15
I900
sg16
g12
sg17
g12
sg18
Vc:\u005cwindows\u005cfonts\u005cblackoakstd.otf
p2313
sg20
g21
sbag1
(g8
g3
NtRp2314
(dp2315
g11
g28
sg13
S'Lucida Bright'
p2316
sg15
I700
sg16
g12
sg17
g12
sg18
Vc:\u005cwindows\u005cfonts\u005clbritedi.ttf
p2317
sg20
g21
sbag1
(g8
g3
NtRp2318
(dp2319
g11
g28
sg13
S'Franklin Gothic Heavy'
p2320
sg15
I800
sg16
g12
sg17
g12
sg18
VC:\u005cWindows\u005cFonts\u005cFRAHVIT.TTF
p2321
sg20
g21
sbag1
(g8
g3
NtRp2322
(dp2323
g11
g12
sg13
S'Comic Sans MS'
p2324
sg15
I400
sg16
g12
sg17
g12
sg18
VC:\u005cWindows\u005cFonts\u005ccomic.ttf
p2325
sg20
g21
sbag1
(g8
g3
NtRp2326
(dp2327
g11
g12
sg13
S'Chaparral Pro'
p2328
sg15
I700
sg16
g12
sg17
g12
sg18
VC:\u005cWindows\u005cFonts\u005cChaparralPro-Bold.otf
p2329
sg20
g21
sbag1
(g8
g3
NtRp2330
(dp2331
g11
g12
sg13
S'Juice ITC'
p2332
sg15
I400
sg16
g12
sg17
g12
sg18
Vc:\u005cwindows\u005cfonts\u005cjuice___.ttf
p2333
sg20
g21
sbag1
(g8
g3
NtRp2334
(dp2335
g11
g12
sg13
S'Kozuka Gothic Pro'
p2336
sg15
I700
sg16
g12
sg17
g12
sg18
VC:\u005cWindows\u005cFonts\u005cKozGoPro-Heavy.otf
p2337
sg20
g21
sbag1
(g8
g3
NtRp2338
(dp2339
g11
g28
sg13
S'Chaparral Pro'
p2340
sg15
I400
sg16
g12
sg17
g12
sg18
VC:\u005cWindows\u005cFonts\u005cChaparralPro-Italic.otf
p2341
sg20
g21
sbag1
(g8
g3
NtRp2342
(dp2343
g11
g12
sg13
S'French Script MT'
p2344
sg15
I400
sg16
g12
sg17
g12
sg18
VC:\u005cWindows\u005cFonts\u005cFRSCRIPT.TTF
p2345
sg20
g21
sbag1
(g8
g3
NtRp2346
(dp2347
g11
g12
sg13
S'Century Schoolbook'
p2348
sg15
I700
sg16
g12
sg17
g12
sg18
VC:\u005cWindows\u005cFonts\u005cSCHLBKB.TTF
p2349
sg20
g21
sbag1
(g8
g3
NtRp2350
(dp2351
g11
g12
sg13
S'Lucida Sans'
p2352
sg15
I400
sg16
g12
sg17
g12
sg18
Vc:\u005cwindows\u005cfonts\u005clsans.ttf
p2353
sg20
g21
sbag1
(g8
g3
NtRp2354
(dp2355
g11
g12
sg13
S'Mistral'
p2356
sg15
I400
sg16
g12
sg17
g12
sg18
VC:\u005cWindows\u005cFonts\u005cMISTRAL.TTF
p2357
sg20
g21
sbag1
(g8
g3
NtRp2358
(dp2359
g11
g12
sg13
S'Franklin Gothic Medium Cond'
p2360
sg15
I500
sg16
g203
sg17
g12
sg18
Vc:\u005cwindows\u005cfonts\u005cframdcn.ttf
p2361
sg20
g21
sbag1
(g8
g3
NtRp2362
(dp2363
g11
g12
sg13
S'Myriad Hebrew'
p2364
sg15
I400
sg16
g12
sg17
g12
sg18
Vc:\u005cwindows\u005cfonts\u005cmyriadhebrew-regular.otf
p2365
sg20
g21
sbag1
(g8
g3
NtRp2366
(dp2367
g11
g12
sg13
S'Stencil Std'
p2368
sg15
I700
sg16
g12
sg17
g12
sg18
Vc:\u005cwindows\u005cfonts\u005cstencilstd.otf
p2369
sg20
g21
sbag1
(g8
g3
NtRp2370
(dp2371
g11
g12
sg13
S'Lithos Pro'
p2372
sg15
I900
sg16
g12
sg17
g12
sg18
Vc:\u005cwindows\u005cfonts\u005clithospro-black.otf
p2373
sg20
g21
sbag1
(g8
g3
NtRp2374
(dp2375
g11
g12
sg13
S'Garamond'
p2376
sg15
I700
sg16
g12
sg17
g12
sg18
VC:\u005cWindows\u005cFonts\u005cGARABD.TTF
p2377
sg20
g21
sbag1
(g8
g3
NtRp2378
(dp2379
g11
g28
sg13
S'Franklin Gothic Book'
p2380
sg15
I400
sg16
g12
sg17
g12
sg18
VC:\u005cWindows\u005cFonts\u005cFRABKIT.TTF
p2381
sg20
g21
sbag1
(g8
g3
NtRp2382
(dp2383
g11
g28
sg13
S'Lucida Fax'
p2384
sg15
I700
sg16
g12
sg17
g12
sg18
VC:\u005cWindows\u005cFonts\u005cLFAXDI.TTF
p2385
sg20
g21
sbag1
(g8
g3
NtRp2386
(dp2387
g11
g12
sg13
S'SketchFlow Print'
p2388
sg15
I400
sg16
g12
sg17
g12
sg18
VC:\u005cWindows\u005cFonts\u005cSketchFlow Print.ttf
p2389
sg20
g21
sbag1
(g8
g3
NtRp2390
(dp2391
g11
g12
sg13
S'Castellar'
p2392
sg15
I400
sg16
g12
sg17
g12
sg18
VC:\u005cWindows\u005cFonts\u005cCASTELAR.TTF
p2393
sg20
g21
sbag1
(g8
g3
NtRp2394
(dp2395
g11
g12
sg13
S'Palatino Linotype'
p2396
sg15
I700
sg16
g12
sg17
g12
sg18
Vc:\u005cwindows\u005cfonts\u005cpalab.ttf
p2397
sg20
g21
sbag1
(g8
g3
NtRp2398
(dp2399
g11
g28
sg13
S'Brush Script MT'
p2400
sg15
I400
sg16
g12
sg17
g12
sg18
Vc:\u005cwindows\u005cfonts\u005cbrushsci.ttf
p2401
sg20
g21
sbag1
(g8
g3
NtRp2402
(dp2403
g11
g12
sg13
S'Kozuka Mincho Pro'
p2404
sg15
I700
sg16
g12
sg17
g12
sg18
VC:\u005cWindows\u005cFonts\u005cKozMinPro-Heavy.otf
p2405
sg20
g21
sbag1
(g8
g3
NtRp2406
(dp2407
g11
g12
sg13
S'Snap ITC'
p2408
sg15
I400
sg16
g12
sg17
g12
sg18
VC:\u005cWindows\u005cFonts\u005cSNAP____.TTF
p2409
sg20
g21
sbag1
(g8
g3
NtRp2410
(dp2411
g11
g12
sg13
S'Freestyle Script'
p2412
sg15
I400
sg16
g12
sg17
g12
sg18
Vc:\u005cwindows\u005cfonts\u005cfreescpt.ttf
p2413
sg20
g21
sbag1
(g8
g3
NtRp2414
(dp2415
g11
g28
sg13
S'Bodoni MT'
p2416
sg15
I400
sg16
g203
sg17
g12
sg18
Vc:\u005cwindows\u005cfonts\u005cbod_ci.ttf
p2417
sg20
g21
sbag1
(g8
g3
NtRp2418
(dp2419
g11
g12
sg13
S'Bell MT'
p2420
sg15
I400
sg16
g12
sg17
g12
sg18
VC:\u005cWindows\u005cFonts\u005cBELL.TTF
p2421
sg20
g21
sbag1
(g8
g3
NtRp2422
(dp2423
g11
g12
sg13
S'Adobe Heiti Std'
p2424
sg15
I400
sg16
g12
sg17
g12
sg18
Vc:\u005cwindows\u005cfonts\u005cadobeheitistd-regular.otf
p2425
sg20
g21
sbag1
(g8
g3
NtRp2426
(dp2427
g11
g12
sg13
S'Gill Sans Ultra Bold'
p2428
sg15
I700
sg16
g12
sg17
g12
sg18
Vc:\u005cwindows\u005cfonts\u005cgilsanub.ttf
p2429
sg20
g21
sbag1
(g8
g3
NtRp2430
(dp2431
g11
g12
sg13
S'Papyrus'
p2432
sg15
I400
sg16
g12
sg17
g12
sg18
VC:\u005cWindows\u005cFonts\u005cPAPYRUS.TTF
p2433
sg20
g21
sbag1
(g8
g3
NtRp2434
(dp2435
g11
g12
sg13
S'Gigi'
p2436
sg15
I400
sg16
g12
sg17
g12
sg18
Vc:\u005cwindows\u005cfonts\u005cgigi.ttf
p2437
sg20
g21
sbag1
(g8
g3
NtRp2438
(dp2439
g11
g12
sg13
S'Tempus Sans ITC'
p2440
sg15
I400
sg16
g12
sg17
g12
sg18
Vc:\u005cwindows\u005cfonts\u005ctempsitc.ttf
p2441
sg20
g21
sbag1
(g8
g3
NtRp2442
(dp2443
g11
g12
sg13
S'Lucida Bright'
p2444
sg15
I700
sg16
g12
sg17
g12
sg18
VC:\u005cWindows\u005cFonts\u005cLBRITED.TTF
p2445
sg20
g21
sbag1
(g8
g3
NtRp2446
(dp2447
g11
g12
sg13
S'Minion Pro'
p2448
sg15
I700
sg16
g12
sg17
g12
sg18
Vc:\u005cwindows\u005cfonts\u005cminionpro-bold.otf
p2449
sg20
g21
sbag1
(g8
g3
NtRp2450
(dp2451
g11
g12
sg13
S'Berlin Sans FB'
p2452
sg15
I700
sg16
g12
sg17
g12
sg18
VC:\u005cWindows\u005cFonts\u005cBRLNSB.TTF
p2453
sg20
g21
sbag1
(g8
g3
NtRp2454
(dp2455
g11
g28
sg13
S'LilyUPC'
p2456
sg15
I700
sg16
g12
sg17
g12
sg18
Vc:\u005cwindows\u005cfonts\u005cupclbi.ttf
p2457
sg20
g21
sbag1
(g8
g3
NtRp2458
(dp2459
g11
g12
sg13
S'FrankRuehl'
p2460
sg15
I400
sg16
g12
sg17
g12
sg18
Vc:\u005cwindows\u005cfonts\u005cfrank.ttf
p2461
sg20
g21
sbag1
(g8
g3
NtRp2462
(dp2463
g11
g12
sg13
S'Wide Latin'
p2464
sg15
I400
sg16
g2268
sg17
g12
sg18
Vc:\u005cwindows\u005cfonts\u005clatinwd.ttf
p2465
sg20
g21
sbag1
(g8
g3
NtRp2466
(dp2467
g11
g12
sg13
S'Raavi'
p2468
sg15
I700
sg16
g12
sg17
g12
sg18
VC:\u005cWindows\u005cFonts\u005craavib.ttf
p2469
sg20
g21
sbag1
(g8
g3
NtRp2470
(dp2471
g11
g12
sg13
S'High Tower Text'
p2472
sg15
I400
sg16
g12
sg17
g12
sg18
Vc:\u005cwindows\u005cfonts\u005chtowert.ttf
p2473
sg20
g21
sbag1
(g8
g3
NtRp2474
(dp2475
g11
g12
sg13
S'Kozuka Gothic Pro'
p2476
sg15
I400
sg16
g12
sg17
g12
sg18
Vc:\u005cwindows\u005cfonts\u005ckozgopro-medium.otf
p2477
sg20
g21
sbag1
(g8
g3
NtRp2478
(dp2479
g11
g28
sg13
S'Nueva Std'
p2480
sg15
I400
sg16
g12
sg17
g12
sg18
VC:\u005cWindows\u005cFonts\u005cNuevaStd-Italic.otf
p2481
sg20
g21
sbag1
(g8
g3
NtRp2482
(dp2483
g11
g28
sg13
S'Myriad Pro'
p2484
sg15
I700
sg16
g12
sg17
g12
sg18
Vc:\u005cwindows\u005cfonts\u005cmyriadpro-boldit.otf
p2485
sg20
g21
sbag1
(g8
g3
NtRp2486
(dp2487
g11
g28
sg13
S'Adobe Arabic'
p2488
sg15
I700
sg16
g12
sg17
g12
sg18
Vc:\u005cwindows\u005cfonts\u005cadobearabic-bolditalic.otf
p2489
sg20
g21
sbag1
(g8
g3
NtRp2490
(dp2491
g11
g12
sg13
S'Elephant'
p2492
sg15
I400
sg16
g12
sg17
g12
sg18
Vc:\u005cwindows\u005cfonts\u005celephnt.ttf
p2493
sg20
g21
sbag1
(g8
g3
NtRp2494
(dp2495
g11
g28
sg13
S'Nueva Std'
p2496
sg15
I400
sg16
g203
sg17
g12
sg18
Vc:\u005cwindows\u005cfonts\u005cnuevastd-conditalic.otf
p2497
sg20
g21
sbag1
(g8
g3
NtRp2498
(dp2499
g11
g12
sg13
S'Microsoft New Tai Lue'
p2500
sg15
I400
sg16
g12
sg17
g12
sg18
VC:\u005cWindows\u005cFonts\u005cntailu.ttf
p2501
sg20
g21
sbag1
(g8
g3
NtRp2502
(dp2503
g11
g12
sg13
S'Nueva Std'
p2504
sg15
I700
sg16
g12
sg17
g12
sg18
VC:\u005cWindows\u005cFonts\u005cNuevaStd-Bold.otf
p2505
sg20
g21
sbag1
(g8
g3
NtRp2506
(dp2507
g11
g12
sg13
S'Kozuka Gothic Pr6N'
p2508
sg15
I400
sg16
g12
sg17
g12
sg18
VC:\u005cWindows\u005cFonts\u005cKozGoPr6N-ExtraLight.otf
p2509
sg20
g21
sbag1
(g8
g3
NtRp2510
(dp2511
g11
g12
sg13
S'Franklin Gothic Demi Cond'
p2512
sg15
I600
sg16
g203
sg17
g12
sg18
Vc:\u005cwindows\u005cfonts\u005cfradmcn.ttf
p2513
sg20
g21
sbag1
(g8
g3
NtRp2514
(dp2515
g11
g28
sg13
S'Consolas'
p2516
sg15
I700
sg16
g12
sg17
g12
sg18
Vc:\u005cwindows\u005cfonts\u005cconsolaz.ttf
p2517
sg20
g21
sbag1
(g8
g3
NtRp2518
(dp2519
g11
g12
sg13
S'Niagara Solid'
p2520
sg15
I400
sg16
g12
sg17
g12
sg18
Vc:\u005cwindows\u005cfonts\u005cniagsol.ttf
p2521
sg20
g21
sbag1
(g8
g3
NtRp2522
(dp2523
g11
g12
sg13
S'High Tower Text'
p2524
sg15
I400
sg16
g12
sg17
g12
sg18
VC:\u005cWindows\u005cFonts\u005cHTOWERT.TTF
p2525
sg20
g21
sbag1
(g8
g3
NtRp2526
(dp2527
g11
g28
sg13
S'EucrosiaUPC'
p2528
sg15
I400
sg16
g12
sg17
g12
sg18
Vc:\u005cwindows\u005cfonts\u005cupcei.ttf
p2529
sg20
g21
sbag1
(g8
g3
NtRp2530
(dp2531
g11
g12
sg13
S'KodchiangUPC'
p2532
sg15
I700
sg16
g12
sg17
g12
sg18
Vc:\u005cwindows\u005cfonts\u005cupckb.ttf
p2533
sg20
g21
sbag1
(g8
g3
NtRp2534
(dp2535
g11
g12
sg13
S'Vani'
p2536
sg15
I700
sg16
g12
sg17
g12
sg18
VC:\u005cWindows\u005cFonts\u005cVanib.ttf
p2537
sg20
g21
sbag1
(g8
g3
NtRp2538
(dp2539
g11
g12
sg13
S'Tempus Sans ITC'
p2540
sg15
I400
sg16
g12
sg17
g12
sg18
VC:\u005cWindows\u005cFonts\u005cTEMPSITC.TTF
p2541
sg20
g21
sbag1
(g8
g3
NtRp2542
(dp2543
g11
g12
sg13
S'Orator Std'
p2544
sg15
I500
sg16
g12
sg17
g12
sg18
VC:\u005cWindows\u005cFonts\u005cOratorStd.otf
p2545
sg20
g21
sbag1
(g8
g3
NtRp2546
(dp2547
g11
g12
sg13
S'Myriad Arabic'
p2548
sg15
I700
sg16
g12
sg17
g12
sg18
VC:\u005cWindows\u005cFonts\u005cMyriadArabic-Bold.otf
p2549
sg20
g21
sbag1
(g8
g3
NtRp2550
(dp2551
g11
g28
sg13
S'Corbel'
p2552
sg15
I400
sg16
g12
sg17
g12
sg18
VC:\u005cWindows\u005cFonts\u005ccorbeli.ttf
p2553
sg20
g21
sbag1
(g8
g3
NtRp2554
(dp2555
g11
g12
sg13
S'Gisha'
p2556
sg15
I700
sg16
g12
sg17
g12
sg18
VC:\u005cWindows\u005cFonts\u005cgishabd.ttf
p2557
sg20
g21
sbag1
(g8
g3
NtRp2558
(dp2559
g11
g28
sg13
S'Lucida Bright'
p2560
sg15
I400
sg16
g12
sg17
g12
sg18
VC:\u005cWindows\u005cFonts\u005cLBRITEI.TTF
p2561
sg20
g21
sbag1
(g8
g3
NtRp2562
(dp2563
g11
g12
sg13
S'Perpetua'
p2564
sg15
I700
sg16
g12
sg17
g12
sg18
VC:\u005cWindows\u005cFonts\u005cPERB____.TTF
p2565
sg20
g21
sbag1
(g8
g3
NtRp2566
(dp2567
g11
g12
sg13
S'Estrangelo Edessa'
p2568
sg15
I400
sg16
g12
sg17
g12
sg18
VC:\u005cWindows\u005cFonts\u005cestre.ttf
p2569
sg20
g21
sbag1
(g8
g3
NtRp2570
(dp2571
g11
g12
sg13
S'Letter Gothic Std'
p2572
sg15
I700
sg16
g12
sg17
g12
sg18
VC:\u005cWindows\u005cFonts\u005cLetterGothicStd-Bold.otf
p2573
sg20
g21
sbag1
(g8
g3
NtRp2574
(dp2575
g11
g12
sg13
S'Nyala'
p2576
sg15
I400
sg16
g12
sg17
g12
sg18
Vc:\u005cwindows\u005cfonts\u005cnyala.ttf
p2577
sg20
g21
sbag1
(g8
g3
NtRp2578
(dp2579
g11
g12
sg13
S'Bell MT'
p2580
sg15
I700
sg16
g12
sg17
g12
sg18
VC:\u005cWindows\u005cFonts\u005cBELLB.TTF
p2581
sg20
g21
sbag1
(g8
g3
NtRp2582
(dp2583
g11
g12
sg13
S'Rockwell'
p2584
sg15
I400
sg16
g12
sg17
g12
sg18
Vc:\u005cwindows\u005cfonts\u005crock.ttf
p2585
sg20
g21
sbag1
(g8
g3
NtRp2586
(dp2587
g11
g12
sg13
S'Agency FB'
p2588
sg15
I700
sg16
g12
sg17
g12
sg18
VC:\u005cWindows\u005cFonts\u005cAGENCYB.TTF
p2589
sg20
g21
sbag1
(g8
g3
NtRp2590
(dp2591
g11
g12
sg13
S'Vrinda'
p2592
sg15
I400
sg16
g12
sg17
g12
sg18
VC:\u005cWindows\u005cFonts\u005cvrinda.ttf
p2593
sg20
g21
sbag1
(g8
g3
NtRp2594
(dp2595
g11
g28
sg13
S'Lucida Sans'
p2596
sg15
I700
sg16
g12
sg17
g12
sg18
Vc:\u005cwindows\u005cfonts\u005clsansdi.ttf
p2597
sg20
g21
sbag1
(g8
g3
NtRp2598
(dp2599
g11
g12
sg13
S'Eras Light ITC'
p2600
sg15
I200
sg16
g12
sg17
g12
sg18
VC:\u005cWindows\u005cFonts\u005cERASLGHT.TTF
p2601
sg20
g21
sbag1
(g8
g3
NtRp2602
(dp2603
g11
g12
sg13
S'Adobe Garamond Pro'
p2604
sg15
I700
sg16
g12
sg17
g12
sg18
Vc:\u005cwindows\u005cfonts\u005cagaramondpro-bold.otf
p2605
sg20
g21
sbag1
(g8
g3
NtRp2606
(dp2607
g11
g12
sg13
S'Adobe Caslon Pro'
p2608
sg15
I400
sg16
g12
sg17
g12
sg18
Vc:\u005cwindows\u005cfonts\u005cacaslonpro-regular.otf
p2609
sg20
g21
sbag1
(g8
g3
NtRp2610
(dp2611
g11
g12
sg13
S'Giddyup Std'
p2612
sg15
I400
sg16
g12
sg17
g12
sg18
Vc:\u005cwindows\u005cfonts\u005cgiddyupstd.otf
p2613
sg20
g21
sbag1
(g8
g3
NtRp2614
(dp2615
g11
g28
sg13
S'Franklin Gothic Demi'
p2616
sg15
I600
sg16
g12
sg17
g12
sg18
VC:\u005cWindows\u005cFonts\u005cFRADMIT.TTF
p2617
sg20
g21
sbag1
(g8
g3
NtRp2618
(dp2619
g11
g12
sg13
S'Century Gothic'
p2620
sg15
I700
sg16
g12
sg17
g12
sg18
VC:\u005cWindows\u005cFonts\u005cGOTHICB.TTF
p2621
sg20
g21
sbag1
(g8
g3
NtRp2622
(dp2623
g11
g28
sg13
S'Rockwell'
p2624
sg15
I700
sg16
g12
sg17
g12
sg18
Vc:\u005cwindows\u005cfonts\u005crockbi.ttf
p2625
sg20
g21
sbag1
(g8
g3
NtRp2626
(dp2627
g11
g12
sg13
S'Kozuka Gothic Pr6N'
p2628
sg15
I400
sg16
g12
sg17
g12
sg18
Vc:\u005cwindows\u005cfonts\u005ckozgopr6n-regular.otf
p2629
sg20
g21
sbag1
(g8
g3
NtRp2630
(dp2631
g11
g12
sg13
S'Nueva Std'
p2632
sg15
I700
sg16
g12
sg17
g12
sg18
Vc:\u005cwindows\u005cfonts\u005cnuevastd-bold.otf
p2633
sg20
g21
sbag1
(g8
g3
NtRp2634
(dp2635
g11
g12
sg13
S'Segoe Script'
p2636
sg15
I400
sg16
g12
sg17
g12
sg18
VC:\u005cWindows\u005cFonts\u005csegoesc.ttf
p2637
sg20
g21
sbag1
(g8
g3
NtRp2638
(dp2639
g11
g12
sg13
S'Tekton Pro'
p2640
sg15
I700
sg16
g203
sg17
g12
sg18
VC:\u005cWindows\u005cFonts\u005cTektonPro-BoldCond.otf
p2641
sg20
g21
sbag1
(g8
g3
NtRp2642
(dp2643
g11
g12
sg13
S'Georgia'
p2644
sg15
I400
sg16
g12
sg17
g12
sg18
VC:\u005cWindows\u005cFonts\u005cgeorgia.ttf
p2645
sg20
g21
sbag1
(g8
g3
NtRp2646
(dp2647
g11
g28
sg13
S'Bookman Old Style'
p2648
sg15
I700
sg16
g12
sg17
g12
sg18
Vc:\u005cwindows\u005cfonts\u005cbookosbi.ttf
p2649
sg20
g21
sbag1
(g8
g3
NtRp2650
(dp2651
g11
g12
sg13
S'Minion Pro'
p2652
sg15
I700
sg16
g12
sg17
g12
sg18
VC:\u005cWindows\u005cFonts\u005cMinionPro-Bold.otf
p2653
sg20
g21
sbag1
(g8
g3
NtRp2654
(dp2655
g11
g12
sg13
S'Perpetua Titling MT'
p2656
sg15
I200
sg16
g12
sg17
g12
sg18
VC:\u005cWindows\u005cFonts\u005cPERTILI.TTF
p2657
sg20
g21
sbag1
(g8
g3
NtRp2658
(dp2659
g11
g12
sg13
S'Elephant'
p2660
sg15
I400
sg16
g12
sg17
g12
sg18
VC:\u005cWindows\u005cFonts\u005cELEPHNT.TTF
p2661
sg20
g21
sbag1
(g8
g3
NtRp2662
(dp2663
g11
g28
sg13
S'Rockwell'
p2664
sg15
I400
sg16
g12
sg17
g12
sg18
VC:\u005cWindows\u005cFonts\u005cROCKI.TTF
p2665
sg20
g21
sbag1
(g8
g3
NtRp2666
(dp2667
g11
g12
sg13
S'Adobe Hebrew'
p2668
sg15
I700
sg16
g12
sg17
g12
sg18
VC:\u005cWindows\u005cFonts\u005cAdobeHebrew-Bold.otf
p2669
sg20
g21
sbag1
(g8
g3
NtRp2670
(dp2671
g11
g28
sg13
S'Bell MT'
p2672
sg15
I400
sg16
g12
sg17
g12
sg18
VC:\u005cWindows\u005cFonts\u005cBELLI.TTF
p2673
sg20
g21
sbag1
(g8
g3
NtRp2674
(dp2675
g11
g12
sg13
S'Eras Bold ITC'
p2676
sg15
I700
sg16
g12
sg17
g12
sg18
VC:\u005cWindows\u005cFonts\u005cERASBD.TTF
p2677
sg20
g21
sbag1
(g8
g3
NtRp2678
(dp2679
g11
g12
sg13
S'AngsanaUPC'
p2680
sg15
I700
sg16
g12
sg17
g12
sg18
VC:\u005cWindows\u005cFonts\u005cangsaub.ttf
p2681
sg20
g21
sbag1
(g8
g3
NtRp2682
(dp2683
g11
g12
sg13
S'Urdu Typesetting'
p2684
sg15
I700
sg16
g12
sg17
g12
sg18
VC:\u005cWindows\u005cFonts\u005cUrdTypeb.ttf
p2685
sg20
g21
sbag1
(g8
g3
NtRp2686
(dp2687
g11
g12
sg13
S'Cooper Black'
p2688
sg15
I900
sg16
g12
sg17
g12
sg18
VC:\u005cWindows\u005cFonts\u005cCOOPBL.TTF
p2689
sg20
g21
sbag1
(g8
g3
NtRp2690
(dp2691
g11
g12
sg13
S'Minion Pro'
p2692
sg15
I500
sg16
g12
sg17
g12
sg18
Vc:\u005cwindows\u005cfonts\u005cminionpro-medium.otf
p2693
sg20
g21
sbag1
(g8
g3
NtRp2694
(dp2695
g11
g12
sg13
S'Lao UI'
p2696
sg15
I700
sg16
g12
sg17
g12
sg18
VC:\u005cWindows\u005cFonts\u005cLaoUIb.ttf
p2697
sg20
g21
sbag1
(g8
g3
NtRp2698
(dp2699
g11
g28
sg13
S'Adobe Garamond Pro'
p2700
sg15
I400
sg16
g12
sg17
g12
sg18
VC:\u005cWindows\u005cFonts\u005cAGaramondPro-Italic.otf
p2701
sg20
g21
sbag1
(g8
g3
NtRp2702
(dp2703
g11
g12
sg13
S'Playbill'
p2704
sg15
I400
sg16
g12
sg17
g12
sg18
VC:\u005cWindows\u005cFonts\u005cPLAYBILL.TTF
p2705
sg20
g21
sbag1
(g8
g3
NtRp2706
(dp2707
g11
g28
sg13
S'Letter Gothic Std'
p2708
sg15
I700
sg16
g12
sg17
g12
sg18
Vc:\u005cwindows\u005cfonts\u005clettergothicstd-boldslanted.otf
p2709
sg20
g21
sbag1
(g8
g3
NtRp2710
(dp2711
g11
g12
sg13
S'Matura MT Script Capitals'
p2712
sg15
I400
sg16
g12
sg17
g12
sg18
Vc:\u005cwindows\u005cfonts\u005cmaturasc.ttf
p2713
sg20
g21
sbag1
(g8
g3
NtRp2714
(dp2715
g11
g12
sg13
S'Tekton Pro'
p2716
sg15
I700
sg16
g12
sg17
g12
sg18
Vc:\u005cwindows\u005cfonts\u005ctektonpro-bold.otf
p2717
sg20
g21
sbag1
(g8
g3
NtRp2718
(dp2719
g11
g28
sg13
S'CordiaUPC'
p2720
sg15
I400
sg16
g12
sg17
g12
sg18
Vc:\u005cwindows\u005cfonts\u005ccordiaui.ttf
p2721
sg20
g21
sbag1
(g8
g3
NtRp2722
(dp2723
g11
g12
sg13
S'Lucida Sans Typewriter'
p2724
sg15
I400
sg16
g12
sg17
g12
sg18
Vc:\u005cwindows\u005cfonts\u005cltype.ttf
p2725
sg20
g21
sbag1
(g8
g3
NtRp2726
(dp2727
g11
g12
sg13
S'Adobe Caslon Pro'
p2728
sg15
I700
sg16
g12
sg17
g12
sg18
VC:\u005cWindows\u005cFonts\u005cACaslonPro-Bold.otf
p2729
sg20
g21
sbag1
(g8
g3
NtRp2730
(dp2731
g11
g12
sg13
S'Franklin Gothic Demi'
p2732
sg15
I600
sg16
g12
sg17
g12
sg18
VC:\u005cWindows\u005cFonts\u005cFRADM.TTF
p2733
sg20
g21
sbag1
(g8
g3
NtRp2734
(dp2735
g11
g12
sg13
S'Ravie'
p2736
sg15
I400
sg16
g12
sg17
g12
sg18
VC:\u005cWindows\u005cFonts\u005cRAVIE.TTF
p2737
sg20
g21
sbag1
(g8
g3
NtRp2738
(dp2739
g11
g12
sg13
S'Palace Script MT'
p2740
sg15
I400
sg16
g12
sg17
g12
sg18
Vc:\u005cwindows\u005cfonts\u005cpalscri.ttf
p2741
sg20
g21
sbag1
(g8
g3
NtRp2742
(dp2743
g11
g12
sg13
S'Century Gothic'
p2744
sg15
I400
sg16
g12
sg17
g12
sg18
Vc:\u005cwindows\u005cfonts\u005cgothic.ttf
p2745
sg20
g21
sbag1
(g8
g3
NtRp2746
(dp2747
g11
g12
sg13
S'Pristina'
p2748
sg15
I400
sg16
g12
sg17
g12
sg18
Vc:\u005cwindows\u005cfonts\u005cpristina.ttf
p2749
sg20
g21
sbag1
(g8
g3
NtRp2750
(dp2751
g11
g12
sg13
S'Shonar Bangla'
p2752
sg15
I700
sg16
g12
sg17
g12
sg18
VC:\u005cWindows\u005cFonts\u005cShonarb.ttf
p2753
sg20
g21
sbag1
(g8
g3
NtRp2754
(dp2755
g11
g28
sg13
S'Adobe Caslon Pro'
p2756
sg15
I700
sg16
g12
sg17
g12
sg18
VC:\u005cWindows\u005cFonts\u005cACaslonPro-BoldItalic.otf
p2757
sg20
g21
sbag1
(g8
g3
NtRp2758
(dp2759
g11
g28
sg13
S'Garamond'
p2760
sg15
I400
sg16
g12
sg17
g12
sg18
VC:\u005cWindows\u005cFonts\u005cGARAIT.TTF
p2761
sg20
g21
sbag1
(g8
g3
NtRp2762
(dp2763
g11
g12
sg13
S'Webdings'
p2764
sg15
I400
sg16
g12
sg17
g12
sg18
VC:\u005cWindows\u005cFonts\u005cwebdings.ttf
p2765
sg20
g21
sbag1
(g8
g3
NtRp2766
(dp2767
g11
g12
sg13
S'Kozuka Mincho Pr6N'
p2768
sg15
I400
sg16
g12
sg17
g12
sg18
VC:\u005cWindows\u005cFonts\u005cKozMinPr6N-Medium.otf
p2769
sg20
g21
sbag1
(g8
g3
NtRp2770
(dp2771
g11
g12
sg13
S'Perpetua'
p2772
sg15
I400
sg16
g12
sg17
g12
sg18
Vc:\u005cwindows\u005cfonts\u005cper_____.ttf
p2773
sg20
g21
sbag1
(g8
g3
NtRp2774
(dp2775
g11
g12
sg13
S'Californian FB'
p2776
sg15
I700
sg16
g12
sg17
g12
sg18
Vc:\u005cwindows\u005cfonts\u005ccalifb.ttf
p2777
sg20
g21
sbag1
(g8
g3
NtRp2778
(dp2779
g11
g12
sg13
S'Kozuka Gothic Pr6N'
p2780
sg15
I700
sg16
g12
sg17
g12
sg18
VC:\u005cWindows\u005cFonts\u005cKozGoPr6N-Bold.otf
p2781
sg20
g21
sbag1
(g8
g3
NtRp2782
(dp2783
g11
g28
sg13
S'Lucida Fax'
p2784
sg15
I400
sg16
g12
sg17
g12
sg18
Vc:\u005cwindows\u005cfonts\u005clfaxi.ttf
p2785
sg20
g21
sbag1
(g8
g3
NtRp2786
(dp2787
g11
g12
sg13
S'Chaparral Pro'
p2788
sg15
I400
sg16
g12
sg17
g12
sg18
VC:\u005cWindows\u005cFonts\u005cChaparralPro-Regular.otf
p2789
sg20
g21
sbag1
(g8
g3
NtRp2790
(dp2791
g11
g12
sg13
S'Franklin Gothic Heavy'
p2792
sg15
I800
sg16
g12
sg17
g12
sg18
Vc:\u005cwindows\u005cfonts\u005cfrahv.ttf
p2793
sg20
g21
sbag1
(g8
g3
NtRp2794
(dp2795
g11
g12
sg13
S'Niagara Engraved'
p2796
sg15
I400
sg16
g12
sg17
g12
sg18
VC:\u005cWindows\u005cFonts\u005cNIAGENG.TTF
p2797
sg20
g21
sbag1
(g8
g3
NtRp2798
(dp2799
g11
g12
sg13
S'Adobe Caslon Pro'
p2800
sg15
I700
sg16
g12
sg17
g12
sg18
VC:\u005cWindows\u005cFonts\u005cACaslonPro-Semibold.otf
p2801
sg20
g21
sbag1
(g8
g3
NtRp2802
(dp2803
g11
g12
sg13
S'Lao UI'
p2804
sg15
I400
sg16
g12
sg17
g12
sg18
VC:\u005cWindows\u005cFonts\u005cLaoUI.ttf
p2805
sg20
g21
sbag1
(g8
g3
NtRp2806
(dp2807
g11
g12
sg13
S'Myriad Arabic'
p2808
sg15
I700
sg16
g12
sg17
g12
sg18
Vc:\u005cwindows\u005cfonts\u005cmyriadarabic-bold.otf
p2809
sg20
g21
sbag1
(g8
g3
NtRp2810
(dp2811
g11
g12
sg13
S'Adobe Arabic'
p2812
sg15
I400
sg16
g12
sg17
g12
sg18
VC:\u005cWindows\u005cFonts\u005cAdobeArabic-Regular.otf
p2813
sg20
g21
sbag1
(g8
g3
NtRp2814
(dp2815
g11
g12
sg13
S'Kozuka Mincho Pro'
p2816
sg15
I400
sg16
g12
sg17
g12
sg18
VC:\u005cWindows\u005cFonts\u005cKozMinPro-Regular.otf
p2817
sg20
g21
sbag1
(g8
g3
NtRp2818
(dp2819
g11
g12
sg13
S'Andalus'
p2820
sg15
I400
sg16
g12
sg17
g12
sg18
VC:\u005cWindows\u005cFonts\u005candlso.ttf
p2821
sg20
g21
sbag1
(g8
g3
NtRp2822
(dp2823
g11
g12
sg13
S'Rosewood Std'
p2824
sg15
I400
sg16
g12
sg17
g12
sg18
VC:\u005cWindows\u005cFonts\u005cRosewoodStd-Regular.otf
p2825
sg20
g21
sbag1
(g8
g3
NtRp2826
(dp2827
g11
g12
sg13
S'Informal Roman'
p2828
sg15
I500
sg16
g12
sg17
g12
sg18
VC:\u005cWindows\u005cFonts\u005cINFROMAN.TTF
p2829
sg20
g21
sbag1
(g8
g3
NtRp2830
(dp2831
g11
g12
sg13
S'Urdu Typesetting'
p2832
sg15
I400
sg16
g12
sg17
g12
sg18
VC:\u005cWindows\u005cFonts\u005cUrdType.ttf
p2833
sg20
g21
sbag1
(g8
g3
NtRp2834
(dp2835
g11
g12
sg13
S'Microsoft New Tai Lue'
p2836
sg15
I700
sg16
g12
sg17
g12
sg18
VC:\u005cWindows\u005cFonts\u005cntailub.ttf
p2837
sg20
g21
sbag1
(g8
g3
NtRp2838
(dp2839
g11
g12
sg13
S'Vani'
p2840
sg15
I700
sg16
g12
sg17
g12
sg18
Vc:\u005cwindows\u005cfonts\u005cvanib.ttf
p2841
sg20
g21
sbag1
(g8
g3
NtRp2842
(dp2843
g11
g12
sg13
S'Kozuka Gothic Pro'
p2844
sg15
I400
sg16
g12
sg17
g12
sg18
Vc:\u005cwindows\u005cfonts\u005ckozgopro-extralight.otf
p2845
sg20
g21
sbag1
(g8
g3
NtRp2846
(dp2847
g11
g12
sg13
S'MS Reference Sans Serif'
p2848
sg15
I400
sg16
g12
sg17
g12
sg18
Vc:\u005cwindows\u005cfonts\u005crefsan.ttf
p2849
sg20
g21
sbag1
(g8
g3
NtRp2850
(dp2851
g11
g12
sg13
S'Adobe Naskh'
p2852
sg15
I500
sg16
g12
sg17
g12
sg18
Vc:\u005cwindows\u005cfonts\u005cadobenaskh-medium.otf
p2853
sg20
g21
sbag1
(g8
g3
NtRp2854
(dp2855
g11
g12
sg13
S'MS Reference Specialty'
p2856
sg15
I400
sg16
g12
sg17
g12
sg18
Vc:\u005cwindows\u005cfonts\u005crefspcl.ttf
p2857
sg20
g21
sbag1
(g8
g3
NtRp2858
(dp2859
g11
g12
sg13
S'Myriad Pro'
p2860
sg15
I400
sg16
g12
sg17
g12
sg18
VC:\u005cWindows\u005cFonts\u005cMyriadPro-Regular.otf
p2861
sg20
g21
sbag1
(g8
g3
NtRp2862
(dp2863
g11
g12
sg13
S'Adobe Devanagari'
p2864
sg15
I700
sg16
g12
sg17
g12
sg18
VC:\u005cWindows\u005cFonts\u005cAdobeDevanagari-Bold.otf
p2865
sg20
g21
sbag1
(g8
g3
NtRp2866
(dp2867
g11
g12
sg13
S'Script MT Bold'
p2868
sg15
I700
sg16
g12
sg17
g12
sg18
VC:\u005cWindows\u005cFonts\u005cSCRIPTBL.TTF
p2869
sg20
g21
sbag1
(g8
g3
NtRp2870
(dp2871
g11
g12
sg13
S'Kozuka Gothic Pro'
p2872
sg15
I400
sg16
g12
sg17
g12
sg18
Vc:\u005cwindows\u005cfonts\u005ckozgopro-regular.otf
p2873
sg20
g21
sbag1
(g8
g3
NtRp2874
(dp2875
g11
g28
sg13
S'Goudy Old Style'
p2876
sg15
I400
sg16
g12
sg17
g12
sg18
Vc:\u005cwindows\u005cfonts\u005cgoudosi.ttf
p2877
sg20
g21
sbag1
(g8
g3
NtRp2878
(dp2879
g11
g28
sg13
S'Book Antiqua'
p2880
sg15
I400
sg16
g12
sg17
g12
sg18
Vc:\u005cwindows\u005cfonts\u005cantquai.ttf
p2881
sg20
g21
sbag1
(g8
g3
NtRp2882
(dp2883
g11
g12
sg13
S'Lucida Bright'
p2884
sg15
I400
sg16
g12
sg17
g12
sg18
Vc:\u005cwindows\u005cfonts\u005clbrite.ttf
p2885
sg20
g21
sbag1
(g8
g3
NtRp2886
(dp2887
g11
g12
sg13
S'Kokila'
p2888
sg15
I400
sg16
g12
sg17
g12
sg18
VC:\u005cWindows\u005cFonts\u005ckokila.ttf
p2889
sg20
g21
sbag1
(g8
g3
NtRp2890
(dp2891
g11
g12
sg13
S'Verdana'
p2892
sg15
I400
sg16
g12
sg17
g12
sg18
VC:\u005cWindows\u005cFonts\u005cverdana.ttf
p2893
sg20
g21
sbag1
(g8
g3
NtRp2894
(dp2895
g11
g28
sg13
S'Segoe UI'
p2896
sg15
I400
sg16
g12
sg17
g12
sg18
Vc:\u005cwindows\u005cfonts\u005csegoeuii.ttf
p2897
sg20
g21
sbag1
(g8
g3
NtRp2898
(dp2899
g11
g12
sg13
S'French Script MT'
p2900
sg15
I400
sg16
g12
sg17
g12
sg18
Vc:\u005cwindows\u005cfonts\u005cfrscript.ttf
p2901
sg20
g21
sbag1
(g8
g3
NtRp2902
(dp2903
g11
g12
sg13
S'Rockwell'
p2904
sg15
I400
sg16
g12
sg17
g12
sg18
VC:\u005cWindows\u005cFonts\u005cROCK.TTF
p2905
sg20
g21
sbag1
(g8
g3
NtRp2906
(dp2907
g11
g28
sg13
S'LilyUPC'
p2908
sg15
I400
sg16
g12
sg17
g12
sg18
Vc:\u005cwindows\u005cfonts\u005cupcli.ttf
p2909
sg20
g21
sbag1
(g8
g3
NtRp2910
(dp2911
g11
g28
sg13
S'Myriad Hebrew'
p2912
sg15
I400
sg16
g12
sg17
g12
sg18
Vc:\u005cwindows\u005cfonts\u005cmyriadhebrew-it.otf
p2913
sg20
g21
sbag1
(g8
g3
NtRp2914
(dp2915
g11
g12
sg13
S'Garamond'
p2916
sg15
I400
sg16
g12
sg17
g12
sg18
VC:\u005cWindows\u005cFonts\u005cGARA.TTF
p2917
sg20
g21
sbag1
(g8
g3
NtRp2918
(dp2919
g11
g28
sg13
S'Arial'
p2920
sg15
I700
sg16
g203
sg17
g12
sg18
VC:\u005cWindows\u005cFonts\u005cARIALNBI.TTF
p2921
sg20
g21
sbag1
(g8
g3
NtRp2922
(dp2923
g11
g12
sg13
S'Bodoni MT'
p2924
sg15
I900
sg16
g12
sg17
g12
sg18
Vc:\u005cwindows\u005cfonts\u005cbod_blar.ttf
p2925
sg20
g21
sbag1
(g8
g3
NtRp2926
(dp2927
g11
g12
sg13
S'Copperplate Gothic Bold'
p2928
sg15
I700
sg16
g12
sg17
g12
sg18
Vc:\u005cwindows\u005cfonts\u005ccoprgtb.ttf
p2929
sg20
g21
sbag1
(g8
g3
NtRp2930
(dp2931
g11
g12
sg13
S'Myanmar Text'
p2932
sg15
I400
sg16
g12
sg17
g12
sg18
VC:\u005cWindows\u005cFonts\u005cmmrtext.ttf
p2933
sg20
g21
sbag1
(g8
g3
NtRp2934
(dp2935
g11
g28
sg13
S'Goudy Old Style'
p2936
sg15
I400
sg16
g12
sg17
g12
sg18
VC:\u005cWindows\u005cFonts\u005cGOUDOSI.TTF
p2937
sg20
g21
sbag1
(g8
g3
NtRp2938
(dp2939
g11
g12
sg13
S'Gill Sans MT Condensed'
p2940
sg15
I400
sg16
g203
sg17
g12
sg18
Vc:\u005cwindows\u005cfonts\u005cgilc____.ttf
p2941
sg20
g21
sbag1
(g8
g3
NtRp2942
(dp2943
g11
g28
sg13
S'Bodoni MT'
p2944
sg15
I700
sg16
g12
sg17
g12
sg18
VC:\u005cWindows\u005cFonts\u005cBOD_BI.TTF
p2945
sg20
g21
sbag1
(g8
g3
NtRp2946
(dp2947
g11
g12
sg13
S'Kozuka Mincho Pr6N'
p2948
sg15
I400
sg16
g12
sg17
g12
sg18
Vc:\u005cwindows\u005cfonts\u005ckozminpr6n-light.otf
p2949
sg20
g21
sbag1
(g8
g3
NtRp2950
(dp2951
g11
g12
sg13
S'Mistral'
p2952
sg15
I400
sg16
g12
sg17
g12
sg18
Vc:\u005cwindows\u005cfonts\u005cmistral.ttf
p2953
sg20
g21
sbag1
(g8
g3
NtRp2954
(dp2955
g11
g28
sg13
S'Browallia New'
p2956
sg15
I700
sg16
g12
sg17
g12
sg18
Vc:\u005cwindows\u005cfonts\u005cbrowaz.ttf
p2957
sg20
g21
sbag1
(g8
g3
NtRp2958
(dp2959
g11
g12
sg13
S'Rockwell Condensed'
p2960
sg15
I400
sg16
g203
sg17
g12
sg18
Vc:\u005cwindows\u005cfonts\u005crocc____.ttf
p2961
sg20
g21
sbag1
(g8
g3
NtRp2962
(dp2963
g11
g12
sg13
S'Nueva Std'
p2964
sg15
I400
sg16
g203
sg17
g12
sg18
VC:\u005cWindows\u005cFonts\u005cNuevaStd-Cond.otf
p2965
sg20
g21
sbag1
(g8
g3
NtRp2966
(dp2967
g11
g12
sg13
S'Giddyup Std'
p2968
sg15
I400
sg16
g12
sg17
g12
sg18
VC:\u005cWindows\u005cFonts\u005cGiddyupStd.otf
p2969
sg20
g21
sbag1
(g8
g3
NtRp2970
(dp2971
g11
g12
sg13
S'CordiaUPC'
p2972
sg15
I400
sg16
g12
sg17
g12
sg18
Vc:\u005cwindows\u005cfonts\u005ccordiau.ttf
p2973
sg20
g21
sbag1
(g8
g3
NtRp2974
(dp2975
g11
g12
sg13
S'Segoe UI'
p2976
sg15
I400
sg16
g12
sg17
g12
sg18
Vc:\u005cwindows\u005cfonts\u005csegoeuisl.ttf
p2977
sg20
g21
sbag1
(g8
g3
NtRp2978
(dp2979
g11
g28
sg13
S'Vivaldi'
p2980
sg15
I400
sg16
g12
sg17
g12
sg18
VC:\u005cWindows\u005cFonts\u005cVIVALDII.TTF
p2981
sg20
g21
sbag1
(g8
g3
NtRp2982
(dp2983
g11
g12
sg13
S'Bookman Old Style'
p2984
sg15
I400
sg16
g12
sg17
g12
sg18
VC:\u005cWindows\u005cFonts\u005cBOOKOS.TTF
p2985
sg20
g21
sbag1
(g8
g3
NtRp2986
(dp2987
g11
g28
sg13
S'Minion Pro'
p2988
sg15
I700
sg16
g203
sg17
g12
sg18
Vc:\u005cwindows\u005cfonts\u005cminionpro-boldcnit.otf
p2989
sg20
g21
sbag1
(g8
g3
NtRp2990
(dp2991
g11
g28
sg13
S'Adobe Devanagari'
p2992
sg15
I400
sg16
g12
sg17
g12
sg18
Vc:\u005cwindows\u005cfonts\u005cadobedevanagari-italic.otf
p2993
sg20
g21
sbag1
(g8
g3
NtRp2994
(dp2995
g11
g12
sg13
S'Tahoma'
p2996
sg15
I400
sg16
g12
sg17
g12
sg18
VC:\u005cWindows\u005cFonts\u005ctahoma.ttf
p2997
sg20
g21
sbag1
(g8
g3
NtRp2998
(dp2999
g11
g12
sg13
S'Magneto'
p3000
sg15
I700
sg16
g12
sg17
g12
sg18
VC:\u005cWindows\u005cFonts\u005cMAGNETOB.TTF
p3001
sg20
g21
sbag1
(g8
g3
NtRp3002
(dp3003
g11
g28
sg13
S'Lucida Handwriting'
p3004
sg15
I400
sg16
g12
sg17
g12
sg18
VC:\u005cWindows\u005cFonts\u005cLHANDW.TTF
p3005
sg20
g21
sbag1
(g8
g3
NtRp3006
(dp3007
g11
g12
sg13
S'Blackoak Std'
p3008
sg15
I900
sg16
g12
sg17
g12
sg18
VC:\u005cWindows\u005cFonts\u005cBlackoakStd.otf
p3009
sg20
g21
sbag1
(g8
g3
NtRp3010
(dp3011
g11
g12
sg13
S'Tw Cen MT Condensed'
p3012
sg15
I400
sg16
g203
sg17
g12
sg18
Vc:\u005cwindows\u005cfonts\u005ctccm____.ttf
p3013
sg20
g21
sbag1
(g8
g3
NtRp3014
(dp3015
g11
g12
sg13
S'Gill Sans MT Ext Condensed Bold'
p3016
sg15
I700
sg16
g203
sg17
g12
sg18
Vc:\u005cwindows\u005cfonts\u005cglsnecb.ttf
p3017
sg20
g21
sbag1
(g8
g3
NtRp3018
(dp3019
g11
g12
sg13
S'AngsanaUPC'
p3020
sg15
I400
sg16
g12
sg17
g12
sg18
VC:\u005cWindows\u005cFonts\u005cangsau.ttf
p3021
sg20
g21
sbag1
(g8
g3
NtRp3022
(dp3023
g11
g12
sg13
S'Kozuka Gothic Pro'
p3024
sg15
I700
sg16
g12
sg17
g12
sg18
Vc:\u005cwindows\u005cfonts\u005ckozgopro-heavy.otf
p3025
sg20
g21
sbag1
(g8
g3
NtRp3026
(dp3027
g11
g28
sg13
S'Angsana New'
p3028
sg15
I700
sg16
g12
sg17
g12
sg18
Vc:\u005cwindows\u005cfonts\u005cangsaz.ttf
p3029
sg20
g21
sbag1
(g8
g3
NtRp3030
(dp3031
g11
g28
sg13
S'Letter Gothic Std'
p3032
sg15
I400
sg16
g12
sg17
g12
sg18
VC:\u005cWindows\u005cFonts\u005cLetterGothicStd-Slanted.otf
p3033
sg20
g21
sbag1
(g8
g3
NtRp3034
(dp3035
g11
g12
sg13
S'Franklin Gothic Medium Cond'
p3036
sg15
I500
sg16
g203
sg17
g12
sg18
VC:\u005cWindows\u005cFonts\u005cFRAMDCN.TTF
p3037
sg20
g21
sbag1
(g8
g3
NtRp3038
(dp3039
g11
g12
sg13
S'Imprint MT Shadow'
p3040
sg15
I400
sg16
g12
sg17
g12
sg18
VC:\u005cWindows\u005cFonts\u005cIMPRISHA.TTF
p3041
sg20
g21
sbag1
(g8
g3
NtRp3042
(dp3043
g11
g12
sg13
S'Gill Sans MT'
p3044
sg15
I400
sg16
g12
sg17
g12
sg18
VC:\u005cWindows\u005cFonts\u005cGIL_____.TTF
p3045
sg20
g21
sbag1
(g8
g3
NtRp3046
(dp3047
g11
g12
sg13
S'Adobe Caslon Pro'
p3048
sg15
I400
sg16
g12
sg17
g12
sg18
VC:\u005cWindows\u005cFonts\u005cACaslonPro-Regular.otf
p3049
sg20
g21
sbag1
(g8
g3
NtRp3050
(dp3051
g11
g12
sg13
S'Footlight MT Light'
p3052
sg15
I200
sg16
g12
sg17
g12
sg18
VC:\u005cWindows\u005cFonts\u005cFTLTLT.TTF
p3053
sg20
g21
sbag1
(g8
g3
NtRp3054
(dp3055
g11
g12
sg13
S'Century Gothic'
p3056
sg15
I700
sg16
g12
sg17
g12
sg18
Vc:\u005cwindows\u005cfonts\u005cgothicb.ttf
p3057
sg20
g21
sbag1
(g8
g3
NtRp3058
(dp3059
g11
g28
sg13
S'Vivaldi'
p3060
sg15
I400
sg16
g12
sg17
g12
sg18
Vc:\u005cwindows\u005cfonts\u005cvivaldii.ttf
p3061
sg20
g21
sbag1
(g8
g3
NtRp3062
(dp3063
g11
g12
sg13
S'Buxton Sketch'
p3064
sg15
I400
sg16
g12
sg17
g12
sg18
Vc:\u005cwindows\u005cfonts\u005cbuxtonsketch.ttf
p3065
sg20
g21
sbag1
(g8
g3
NtRp3066
(dp3067
g11
g12
sg13
S'Bookman Old Style'
p3068
sg15
I400
sg16
g12
sg17
g12
sg18
Vc:\u005cwindows\u005cfonts\u005cbookos.ttf
p3069
sg20
g21
sbag1
(g8
g3
NtRp3070
(dp3071
g11
g28
sg13
S'Californian FB'
p3072
sg15
I400
sg16
g12
sg17
g12
sg18
VC:\u005cWindows\u005cFonts\u005cCALIFI.TTF
p3073
sg20
g21
sbag1
(g8
g3
NtRp3074
(dp3075
g11
g12
sg13
S'Berlin Sans FB Demi'
p3076
sg15
I700
sg16
g12
sg17
g12
sg18
Vc:\u005cwindows\u005cfonts\u005cbrlnsdb.ttf
p3077
sg20
g21
sbag1
(g8
g3
NtRp3078
(dp3079
g11
g12
sg13
S'Perpetua'
p3080
sg15
I700
sg16
g12
sg17
g12
sg18
Vc:\u005cwindows\u005cfonts\u005cperb____.ttf
p3081
sg20
g21
sbag1
(g8
g3
NtRp3082
(dp3083
g11
g28
sg13
S'Century Schoolbook'
p3084
sg15
I700
sg16
g12
sg17
g12
sg18
Vc:\u005cwindows\u005cfonts\u005cschlbkbi.ttf
p3085
sg20
g21
sbag1
(g8
g3
NtRp3086
(dp3087
g11
g12
sg13
S'Brush Script Std'
p3088
sg15
I500
sg16
g12
sg17
g12
sg18
Vc:\u005cwindows\u005cfonts\u005cbrushscriptstd.otf
p3089
sg20
g21
sbag1
(g8
g3
NtRp3090
(dp3091
g11
g28
sg13
S'Rage Italic'
p3092
sg15
I400
sg16
g12
sg17
g12
sg18
Vc:\u005cwindows\u005cfonts\u005crage.ttf
p3093
sg20
g21
sbag1
(g8
g3
NtRp3094
(dp3095
g11
g28
sg13
S'Arial'
p3096
sg15
I700
sg16
g203
sg17
g12
sg18
Vc:\u005cwindows\u005cfonts\u005carialnbi.ttf
p3097
sg20
g21
sbag1
(g8
g3
NtRp3098
(dp3099
g11
g12
sg13
S'Bodoni MT'
p3100
sg15
I700
sg16
g203
sg17
g12
sg18
Vc:\u005cwindows\u005cfonts\u005cbod_cb.ttf
p3101
sg20
g21
sbag1
(g8
g3
NtRp3102
(dp3103
g11
g12
sg13
S'Parchment'
p3104
sg15
I400
sg16
g12
sg17
g12
sg18
Vc:\u005cwindows\u005cfonts\u005cparchm.ttf
p3105
sg20
g21
sbag1
(g8
g3
NtRp3106
(dp3107
g11
g28
sg13
S'Harlow Solid Italic'
p3108
sg15
I400
sg16
g12
sg17
g12
sg18
Vc:\u005cwindows\u005cfonts\u005charlowsi.ttf
p3109
sg20
g21
sbag1
(g8
g3
NtRp3110
(dp3111
g11
g12
sg13
S'Gadugi'
p3112
sg15
I700
sg16
g12
sg17
g12
sg18
VC:\u005cWindows\u005cFonts\u005cgadugib.ttf
p3113
sg20
g21
sbag1
(g8
g3
NtRp3114
(dp3115
g11
g12
sg13
S'Chaparral Pro'
p3116
sg15
I700
sg16
g12
sg17
g12
sg18
Vc:\u005cwindows\u005cfonts\u005cchaparralpro-bold.otf
p3117
sg20
g21
sbag1
(g8
g3
NtRp3118
(dp3119
g11
g12
sg13
S'Poor Richard'
p3120
sg15
I400
sg16
g12
sg17
g12
sg18
VC:\u005cWindows\u005cFonts\u005cPOORICH.TTF
p3121
sg20
g21
sbag1
(g8
g3
NtRp3122
(dp3123
g11
g12
sg13
S'Bodoni MT'
p3124
sg15
I400
sg16
g203
sg17
g12
sg18
VC:\u005cWindows\u005cFonts\u005cBOD_CR.TTF
p3125
sg20
g21
sbag1
(g8
g3
NtRp3126
(dp3127
g11
g12
sg13
S'Showcard Gothic'
p3128
sg15
I400
sg16
g12
sg17
g12
sg18
Vc:\u005cwindows\u005cfonts\u005cshowg.ttf
p3129
sg20
g21
sbag1
(g8
g3
NtRp3130
(dp3131
g11
g28
sg13
S'Arial'
p3132
sg15
I400
sg16
g203
sg17
g12
sg18
Vc:\u005cwindows\u005cfonts\u005carialni.ttf
p3133
sg20
g21
sbag1
(g8
g3
NtRp3134
(dp3135
g11
g28
sg13
S'Lucida Sans'
p3136
sg15
I700
sg16
g12
sg17
g12
sg18
VC:\u005cWindows\u005cFonts\u005cLSANSDI.TTF
p3137
sg20
g21
sbag1
(g8
g3
NtRp3138
(dp3139
g11
g12
sg13
S'Brush Script Std'
p3140
sg15
I500
sg16
g12
sg17
g12
sg18
VC:\u005cWindows\u005cFonts\u005cBrushScriptStd.otf
p3141
sg20
g21
sbag1
(g8
g3
NtRp3142
(dp3143
g11
g12
sg13
S'Matura MT Script Capitals'
p3144
sg15
I400
sg16
g12
sg17
g12
sg18
VC:\u005cWindows\u005cFonts\u005cMATURASC.TTF
p3145
sg20
g21
sbag1
(g8
g3
NtRp3146
(dp3147
g11
g28
sg13
S'Century Gothic'
p3148
sg15
I400
sg16
g12
sg17
g12
sg18
Vc:\u005cwindows\u005cfonts\u005cgothici.ttf
p3149
sg20
g21
sbag1
(g8
g3
NtRp3150
(dp3151
g11
g12
sg13
S'Myriad Pro'
p3152
sg15
I400
sg16
g203
sg17
g12
sg18
VC:\u005cWindows\u005cFonts\u005cMyriadPro-Cond.otf
p3153
sg20
g21
sbag1
(g8
g3
NtRp3154
(dp3155
g11
g12
sg13
S'Goudy Old Style'
p3156
sg15
I700
sg16
g12
sg17
g12
sg18
Vc:\u005cwindows\u005cfonts\u005cgoudosb.ttf
p3157
sg20
g21
sbag1
(g8
g3
NtRp3158
(dp3159
g11
g12
sg13
S'Vani'
p3160
sg15
I400
sg16
g12
sg17
g12
sg18
VC:\u005cWindows\u005cFonts\u005cVani.ttf
p3161
sg20
g21
sbag1
(g8
g3
NtRp3162
(dp3163
g11
g28
sg13
S'Lucida Bright'
p3164
sg15
I700
sg16
g12
sg17
g12
sg18
VC:\u005cWindows\u005cFonts\u005cLBRITEDI.TTF
p3165
sg20
g21
sbag1
(g8
g3
NtRp3166
(dp3167
g11
g12
sg13
S'Eras Demi ITC'
p3168
sg15
I600
sg16
g12
sg17
g12
sg18
VC:\u005cWindows\u005cFonts\u005cERASDEMI.TTF
p3169
sg20
g21
sbag1
(g8
g3
NtRp3170
(dp3171
g11
g28
sg13
S'Lucida Fax'
p3172
sg15
I400
sg16
g12
sg17
g12
sg18
VC:\u005cWindows\u005cFonts\u005cLFAXI.TTF
p3173
sg20
g21
sbag1
(g8
g3
NtRp3174
(dp3175
g11
g12
sg13
S'Leelawadee UI'
p3176
sg15
I400
sg16
g12
sg17
g12
sg18
VC:\u005cWindows\u005cFonts\u005cLeelUIsl.ttf
p3177
sg20
g21
sbag1
(g8
g3
NtRp3178
(dp3179
g11
g12
sg13
S'Lao UI'
p3180
sg15
I700
sg16
g12
sg17
g12
sg18
Vc:\u005cwindows\u005cfonts\u005claouib.ttf
p3181
sg20
g21
sbag1
(g8
g3
NtRp3182
(dp3183
g11
g12
sg13
S'Lucida Bright'
p3184
sg15
I400
sg16
g12
sg17
g12
sg18
VC:\u005cWindows\u005cFonts\u005cLBRITE.TTF
p3185
sg20
g21
sbag1
(g8
g3
NtRp3186
(dp3187
g11
g12
sg13
S'Forte'
p3188
sg15
I400
sg16
g12
sg17
g12
sg18
Vc:\u005cwindows\u005cfonts\u005cforte.ttf
p3189
sg20
g21
sbag1
(g8
g3
NtRp3190
(dp3191
g11
g12
sg13
S'Nueva Std'
p3192
sg15
I700
sg16
g203
sg17
g12
sg18
Vc:\u005cwindows\u005cfonts\u005cnuevastd-boldcond.otf
p3193
sg20
g21
sbag1
(g8
g3
NtRp3194
(dp3195
g11
g12
sg13
S'Tekton Pro'
p3196
sg15
I700
sg16
g203
sg17
g12
sg18
Vc:\u005cwindows\u005cfonts\u005ctektonpro-boldcond.otf
p3197
sg20
g21
sbag1
(g8
g3
NtRp3198
(dp3199
g11
g12
sg13
S'Palatino Linotype'
p3200
sg15
I400
sg16
g12
sg17
g12
sg18
Vc:\u005cwindows\u005cfonts\u005cpala.ttf
p3201
sg20
g21
sbag1
(g8
g3
NtRp3202
(dp3203
g11
g28
sg13
S'Letter Gothic Std'
p3204
sg15
I400
sg16
g12
sg17
g12
sg18
Vc:\u005cwindows\u005cfonts\u005clettergothicstd-slanted.otf
p3205
sg20
g21
sbag1
(g8
g3
NtRp3206
(dp3207
g11
g12
sg13
S'Agency FB'
p3208
sg15
I400
sg16
g12
sg17
g12
sg18
VC:\u005cWindows\u005cFonts\u005cAGENCYR.TTF
p3209
sg20
g21
sbag1
(g8
g3
NtRp3210
(dp3211
g11
g28
sg13
S'Constantia'
p3212
sg15
I400
sg16
g12
sg17
g12
sg18
VC:\u005cWindows\u005cFonts\u005cconstani.ttf
p3213
sg20
g21
sbag1
(g8
g3
NtRp3214
(dp3215
g11
g12
sg13
S'Kozuka Gothic Pr6N'
p3216
sg15
I400
sg16
g12
sg17
g12
sg18
Vc:\u005cwindows\u005cfonts\u005ckozgopr6n-light.otf
p3217
sg20
g21
sbag1
(g8
g3
NtRp3218
(dp3219
g11
g12
sg13
S'Rockwell Extra Bold'
p3220
sg15
I700
sg16
g12
sg17
g12
sg18
VC:\u005cWindows\u005cFonts\u005cROCKEB.TTF
p3221
sg20
g21
sbag1
(g8
g3
NtRp3222
(dp3223
g11
g12
sg13
S'Parchment'
p3224
sg15
I400
sg16
g12
sg17
g12
sg18
VC:\u005cWindows\u005cFonts\u005cPARCHM.TTF
p3225
sg20
g21
sbag1
(g8
g3
NtRp3226
(dp3227
g11
g12
sg13
S'Goudy Old Style'
p3228
sg15
I400
sg16
g12
sg17
g12
sg18
Vc:\u005cwindows\u005cfonts\u005cgoudos.ttf
p3229
sg20
g21
sbag1
(g8
g3
NtRp3230
(dp3231
g11
g12
sg13
S'Poplar Std'
p3232
sg15
I900
sg16
g12
sg17
g12
sg18
VC:\u005cWindows\u005cFonts\u005cPoplarStd.otf
p3233
sg20
g21
sbag1
(g8
g3
NtRp3234
(dp3235
g11
g12
sg13
S'Leelawadee UI'
p3236
sg15
I400
sg16
g12
sg17
g12
sg18
Vc:\u005cwindows\u005cfonts\u005cleelawui.ttf
p3237
sg20
g21
sbag1
(g8
g3
NtRp3238
(dp3239
g11
g28
sg13
S'Adobe Caslon Pro'
p3240
sg15
I400
sg16
g12
sg17
g12
sg18
Vc:\u005cwindows\u005cfonts\u005cacaslonpro-italic.otf
p3241
sg20
g21
sbag1
(g8
g3
NtRp3242
(dp3243
g11
g12
sg13
S'Kunstler Script'
p3244
sg15
I400
sg16
g12
sg17
g12
sg18
Vc:\u005cwindows\u005cfonts\u005ckunstler.ttf
p3245
sg20
g21
sbag1
(g8
g3
NtRp3246
(dp3247
g11
g12
sg13
S'Arial Unicode MS'
p3248
sg15
I400
sg16
g12
sg17
g12
sg18
VC:\u005cWindows\u005cFonts\u005cARIALUNI.TTF
p3249
sg20
g21
sbag1
(g8
g3
NtRp3250
(dp3251
g11
g12
sg13
S'Algerian'
p3252
sg15
I400
sg16
g12
sg17
g12
sg18
VC:\u005cWindows\u005cFonts\u005cALGER.TTF
p3253
sg20
g21
sbag1
(g8
g3
NtRp3254
(dp3255
g11
g12
sg13
S'Rod'
p3256
sg15
I400
sg16
g12
sg17
g12
sg18
Vc:\u005cwindows\u005cfonts\u005crod.ttf
p3257
sg20
g21
sbag1
(g8
g3
NtRp3258
(dp3259
g11
g28
sg13
S'Adobe Caslon Pro'
p3260
sg15
I700
sg16
g12
sg17
g12
sg18
Vc:\u005cwindows\u005cfonts\u005cacaslonpro-bolditalic.otf
p3261
sg20
g21
sbag1
(g8
g3
NtRp3262
(dp3263
g11
g12
sg13
S'Segoe UI Symbol'
p3264
sg15
I400
sg16
g12
sg17
g12
sg18
Vc:\u005cwindows\u005cfonts\u005cseguisym.ttf
p3265
sg20
g21
sbag1
(g8
g3
NtRp3266
(dp3267
g11
g12
sg13
S'Bodoni MT'
p3268
sg15
I900
sg16
g12
sg17
g12
sg18
VC:\u005cWindows\u005cFonts\u005cBOD_BLAR.TTF
p3269
sg20
g21
sbag1
(g8
g3
NtRp3270
(dp3271
g11
g12
sg13
S'Snap ITC'
p3272
sg15
I400
sg16
g12
sg17
g12
sg18
Vc:\u005cwindows\u005cfonts\u005csnap____.ttf
p3273
sg20
g21
sbag1
(g8
g3
NtRp3274
(dp3275
g11
g28
sg13
S'Candara'
p3276
sg15
I700
sg16
g12
sg17
g12
sg18
Vc:\u005cwindows\u005cfonts\u005ccandaraz.ttf
p3277
sg20
g21
sbag1
(g8
g3
NtRp3278
(dp3279
g11
g12
sg13
S'Agency FB'
p3280
sg15
I400
sg16
g12
sg17
g12
sg18
Vc:\u005cwindows\u005cfonts\u005cagencyr.ttf
p3281
sg20
g21
sbag1
(g8
g3
NtRp3282
(dp3283
g11
g12
sg13
S'Edwardian Script ITC'
p3284
sg15
I400
sg16
g12
sg17
g12
sg18
Vc:\u005cwindows\u005cfonts\u005citcedscr.ttf
p3285
sg20
g21
sbag1
(g8
g3
NtRp3286
(dp3287
g11
g12
sg13
S'Edwardian Script ITC'
p3288
sg15
I400
sg16
g12
sg17
g12
sg18
VC:\u005cWindows\u005cFonts\u005cITCEDSCR.TTF
p3289
sg20
g21
sbag1
(g8
g3
NtRp3290
(dp3291
g11
g28
sg13
S'Century Schoolbook'
p3292
sg15
I400
sg16
g12
sg17
g12
sg18
VC:\u005cWindows\u005cFonts\u005cSCHLBKI.TTF
p3293
sg20
g21
sbag1
(g8
g3
NtRp3294
(dp3295
g11
g12
sg13
S'Century Schoolbook'
p3296
sg15
I400
sg16
g12
sg17
g12
sg18
VC:\u005cWindows\u005cFonts\u005cCENSCBK.TTF
p3297
sg20
g21
sbag1
(g8
g3
NtRp3298
(dp3299
g11
g28
sg13
S'Myriad Arabic'
p3300
sg15
I400
sg16
g12
sg17
g12
sg18
Vc:\u005cwindows\u005cfonts\u005cmyriadarabic-it.otf
p3301
sg20
g21
sbag1
(g8
g3
NtRp3302
(dp3303
g11
g12
sg13
S'ZWAdobeF'
p3304
sg15
I400
sg16
g12
sg17
g12
sg18
Vc:\u005cwindows\u005cfonts\u005czwadobef.ttf
p3305
sg20
g21
sbag1
(g8
g3
NtRp3306
(dp3307
g11
g12
sg13
S'Goudy Stout'
p3308
sg15
I400
sg16
g12
sg17
g12
sg18
VC:\u005cWindows\u005cFonts\u005cGOUDYSTO.TTF
p3309
sg20
g21
sbag1
(g8
g3
NtRp3310
(dp3311
g11
g12
sg13
S'Khmer UI'
p3312
sg15
I700
sg16
g12
sg17
g12
sg18
VC:\u005cWindows\u005cFonts\u005cKhmerUIb.ttf
p3313
sg20
g21
sbag1
(g8
g3
NtRp3314
(dp3315
g11
g12
sg13
S'FangSong'
p3316
sg15
I400
sg16
g12
sg17
g12
sg18
Vc:\u005cwindows\u005cfonts\u005csimfang.ttf
p3317
sg20
g21
sbag1
(g8
g3
NtRp3318
(dp3319
g11
g12
sg13
S'Georgia'
p3320
sg15
I700
sg16
g12
sg17
g12
sg18
Vc:\u005cwindows\u005cfonts\u005cgeorgiab.ttf
p3321
sg20
g21
sbag1
(g8
g3
NtRp3322
(dp3323
g11
g28
sg13
S'Myriad Hebrew'
p3324
sg15
I700
sg16
g12
sg17
g12
sg18
VC:\u005cWindows\u005cFonts\u005cMyriadHebrew-BoldIt.otf
p3325
sg20
g21
sbag1
(g8
g3
NtRp3326
(dp3327
g11
g12
sg13
S'Minion Pro'
p3328
sg15
I700
sg16
g12
sg17
g12
sg18
Vc:\u005cwindows\u005cfonts\u005cminionpro-semibold.otf
p3329
sg20
g21
sbag1
(g8
g3
NtRp3330
(dp3331
g11
g12
sg13
S'Adobe Kaiti Std'
p3332
sg15
I400
sg16
g12
sg17
g12
sg18
Vc:\u005cwindows\u005cfonts\u005cadobekaitistd-regular.otf
p3333
sg20
g21
sbag1
(g8
g3
NtRp3334
(dp3335
g11
g12
sg13
S'Viner Hand ITC'
p3336
sg15
I400
sg16
g12
sg17
g12
sg18
VC:\u005cWindows\u005cFonts\u005cVINERITC.TTF
p3337
sg20
g21
sbag1
(g8
g3
NtRp3338
(dp3339
g11
g12
sg13
S'Adobe Garamond Pro'
p3340
sg15
I400
sg16
g12
sg17
g12
sg18
Vc:\u005cwindows\u005cfonts\u005cagaramondpro-regular.otf
p3341
sg20
g21
sbag1
(g8
g3
NtRp3342
(dp3343
g11
g12
sg13
S'Niagara Engraved'
p3344
sg15
I400
sg16
g12
sg17
g12
sg18
Vc:\u005cwindows\u005cfonts\u005cniageng.ttf
p3345
sg20
g21
sbag1
(g8
g3
NtRp3346
(dp3347
g11
g12
sg13
S'MS Reference Specialty'
p3348
sg15
I400
sg16
g12
sg17
g12
sg18
VC:\u005cWindows\u005cFonts\u005cREFSPCL.TTF
p3349
sg20
g21
sbag1
(g8
g3
NtRp3350
(dp3351
g11
g12
sg13
S'Kozuka Mincho Pr6N'
p3352
sg15
I400
sg16
g12
sg17
g12
sg18
VC:\u005cWindows\u005cFonts\u005cKozMinPr6N-Light.otf
p3353
sg20
g21
sbag1
(g8
g3
NtRp3354
(dp3355
g11
g28
sg13
S'Adobe Hebrew'
p3356
sg15
I700
sg16
g12
sg17
g12
sg18
Vc:\u005cwindows\u005cfonts\u005cadobehebrew-bolditalic.otf
p3357
sg20
g21
sbag1
(g8
g3
NtRp3358
(dp3359
g11
g28
sg13
S'Rockwell'
p3360
sg15
I700
sg16
g12
sg17
g12
sg18
VC:\u005cWindows\u005cFonts\u005cROCKBI.TTF
p3361
sg20
g21
sbag1
(g8
g3
NtRp3362
(dp3363
g11
g12
sg13
S'Lucida Sans'
p3364
sg15
I700
sg16
g12
sg17
g12
sg18
Vc:\u005cwindows\u005cfonts\u005clsansd.ttf
p3365
sg20
g21
sbag1
(g8
g3
NtRp3366
(dp3367
g11
g12
sg13
S'Kozuka Gothic Pro'
p3368
sg15
I400
sg16
g12
sg17
g12
sg18
VC:\u005cWindows\u005cFonts\u005cKozGoPro-Regular.otf
p3369
sg20
g21
sbag1
(g8
g3
NtRp3370
(dp3371
g11
g12
sg13
S'Kozuka Mincho Pr6N'
p3372
sg15
I700
sg16
g12
sg17
g12
sg18
Vc:\u005cwindows\u005cfonts\u005ckozminpr6n-bold.otf
p3373
sg20
g21
sbag1
(g8
g3
NtRp3374
(dp3375
g11
g12
sg13
S'Monotype Corsiva'
p3376
sg15
I400
sg16
g12
sg17
g12
sg18
VC:\u005cWindows\u005cFonts\u005cMTCORSVA.TTF
p3377
sg20
g21
sbag1
(g8
g3
NtRp3378
(dp3379
g11
g12
sg13
S'MS Outlook'
p3380
sg15
I400
sg16
g12
sg17
g12
sg18
VC:\u005cWindows\u005cFonts\u005cOUTLOOK.TTF
p3381
sg20
g21
sbag1
(g8
g3
NtRp3382
(dp3383
g11
g28
sg13
S'Lucida Bright'
p3384
sg15
I400
sg16
g12
sg17
g12
sg18
Vc:\u005cwindows\u005cfonts\u005clbritei.ttf
p3385
sg20
g21
sbag1
(g8
g3
NtRp3386
(dp3387
g11
g12
sg13
S'Bodoni MT'
p3388
sg15
I400
sg16
g12
sg17
g12
sg18
VC:\u005cWindows\u005cFonts\u005cBOD_R.TTF
p3389
sg20
g21
sbag1
(g8
g3
NtRp3390
(dp3391
g11
g28
sg13
S'High Tower Text'
p3392
sg15
I400
sg16
g12
sg17
g12
sg18
Vc:\u005cwindows\u005cfonts\u005chtowerti.ttf
p3393
sg20
g21
sbag1
(g8
g3
NtRp3394
(dp3395
g11
g12
sg13
S'Myriad Pro'
p3396
sg15
I400
sg16
g12
sg17
g12
sg18
Vc:\u005cwindows\u005cfonts\u005cmyriadpro-regular.otf
p3397
sg20
g21
sbag1
(g8
g3
NtRp3398
(dp3399
g11
g12
sg13
S'Onyx'
p3400
sg15
I400
sg16
g12
sg17
g12
sg18
Vc:\u005cwindows\u005cfonts\u005conyx.ttf
p3401
sg20
g21
sbag1
(g8
g3
NtRp3402
(dp3403
g11
g12
sg13
S'Kristen ITC'
p3404
sg15
I400
sg16
g12
sg17
g12
sg18
Vc:\u005cwindows\u005cfonts\u005citckrist.ttf
p3405
sg20
g21
sbag1
(g8
g3
NtRp3406
(dp3407
g11
g12
sg13
S'Lucida Bright'
p3408
sg15
I700
sg16
g12
sg17
g12
sg18
Vc:\u005cwindows\u005cfonts\u005clbrited.ttf
p3409
sg20
g21
sbag1
(g8
g3
NtRp3410
(dp3411
g11
g28
sg13
S'Adobe Caslon Pro'
p3412
sg15
I700
sg16
g12
sg17
g12
sg18
VC:\u005cWindows\u005cFonts\u005cACaslonPro-SemiboldItalic.otf
p3413
sg20
g21
sbag1
(g8
g3
NtRp3414
(dp3415
g11
g12
sg13
S'SketchFlow Print'
p3416
sg15
I400
sg16
g12
sg17
g12
sg18
Vc:\u005cwindows\u005cfonts\u005csketchflow print.ttf
p3417
sg20
g21
sbag1
(g8
g3
NtRp3418
(dp3419
g11
g12
sg13
S'Stencil'
p3420
sg15
I400
sg16
g12
sg17
g12
sg18
VC:\u005cWindows\u005cFonts\u005cSTENCIL.TTF
p3421
sg20
g21
sbag1
(g8
g3
NtRp3422
(dp3423
g11
g12
sg13
S'Gill Sans MT Condensed'
p3424
sg15
I400
sg16
g203
sg17
g12
sg18
VC:\u005cWindows\u005cFonts\u005cGILC____.TTF
p3425
sg20
g21
sbag1
(g8
g3
NtRp3426
(dp3427
g11
g12
sg13
S'Goudy Old Style'
p3428
sg15
I400
sg16
g12
sg17
g12
sg18
VC:\u005cWindows\u005cFonts\u005cGOUDOS.TTF
p3429
sg20
g21
sbag1
(g8
g3
NtRp3430
(dp3431
g11
g12
sg13
S'Prestige Elite Std'
p3432
sg15
I700
sg16
g12
sg17
g12
sg18
Vc:\u005cwindows\u005cfonts\u005cprestigeelitestd-bd.otf
p3433
sg20
g21
sbag1
(g8
g3
NtRp3434
(dp3435
g11
g12
sg13
S'Orator Std'
p3436
sg15
I500
sg16
g12
sg17
g12
sg18
Vc:\u005cwindows\u005cfonts\u005coratorstd.otf
p3437
sg20
g21
sbag1
(g8
g3
NtRp3438
(dp3439
g11
g12
sg13
S'OCR A Extended'
p3440
sg15
I400
sg16
g12
sg17
g12
sg18
VC:\u005cWindows\u005cFonts\u005cOCRAEXT.TTF
p3441
sg20
g21
sbag1
(g8
g3
NtRp3442
(dp3443
g11
g12
sg13
S'Bradley Hand ITC'
p3444
sg15
I400
sg16
g12
sg17
g12
sg18
Vc:\u005cwindows\u005cfonts\u005cbradhitc.ttf
p3445
sg20
g21
sbag1
(g8
g3
NtRp3446
(dp3447
g11
g12
sg13
S'Kozuka Gothic Pro'
p3448
sg15
I400
sg16
g12
sg17
g12
sg18
VC:\u005cWindows\u005cFonts\u005cKozGoPro-ExtraLight.otf
p3449
sg20
g21
sbag1
(g8
g3
NtRp3450
(dp3451
g11
g28
sg13
S'Adobe Garamond Pro'
p3452
sg15
I700
sg16
g12
sg17
g12
sg18
Vc:\u005cwindows\u005cfonts\u005cagaramondpro-bolditalic.otf
p3453
sg20
g21
sbag1
(g8
g3
NtRp3454
(dp3455
g11
g12
sg13
S'Century'
p3456
sg15
I400
sg16
g12
sg17
g12
sg18
VC:\u005cWindows\u005cFonts\u005cCENTURY.TTF
p3457
sg20
g21
sbag1
(g8
g3
NtRp3458
(dp3459
g11
g12
sg13
S'Britannic Bold'
p3460
sg15
I700
sg16
g12
sg17
g12
sg18
VC:\u005cWindows\u005cFonts\u005cBRITANIC.TTF
p3461
sg20
g21
sbag1
(g8
g3
NtRp3462
(dp3463
g11
g12
sg13
S'Trajan Pro'
p3464
sg15
I400
sg16
g12
sg17
g12
sg18
VC:\u005cWindows\u005cFonts\u005cTrajanPro-Regular.otf
p3465
sg20
g21
sbag1
(g8
g3
NtRp3466
(dp3467
g11
g12
sg13
S'Myriad Pro'
p3468
sg15
I400
sg16
g203
sg17
g12
sg18
Vc:\u005cwindows\u005cfonts\u005cmyriadpro-cond.otf
p3469
sg20
g21
sbag1
(g8
g3
NtRp3470
(dp3471
g11
g12
sg13
S'Old English Text MT'
p3472
sg15
I400
sg16
g12
sg17
g12
sg18
VC:\u005cWindows\u005cFonts\u005cOLDENGL.TTF
p3473
sg20
g21
sbag1
(g8
g3
NtRp3474
(dp3475
g11
g12
sg13
S'Nirmala UI'
p3476
sg15
I700
sg16
g12
sg17
g12
sg18
VC:\u005cWindows\u005cFonts\u005cNirmalaB.ttf
p3477
sg20
g21
sbag1
(g8
g3
NtRp3478
(dp3479
g11
g12
sg13
S'Raavi'
p3480
sg15
I400
sg16
g12
sg17
g12
sg18
VC:\u005cWindows\u005cFonts\u005craavi.ttf
p3481
sg20
g21
sbag1
(g8
g3
NtRp3482
(dp3483
g11
g28
sg13
S'Adobe Devanagari'
p3484
sg15
I700
sg16
g12
sg17
g12
sg18
Vc:\u005cwindows\u005cfonts\u005cadobedevanagari-bolditalic.otf
p3485
sg20
g21
sbag1
(g8
g3
NtRp3486
(dp3487
g11
g12
sg13
S'Vladimir Script'
p3488
sg15
I400
sg16
g12
sg17
g12
sg18
Vc:\u005cwindows\u005cfonts\u005cvladimir.ttf
p3489
sg20
g21
sbag1
(g8
g3
NtRp3490
(dp3491
g11
g12
sg13
S'Arial'
p3492
sg15
I700
sg16
g203
sg17
g12
sg18
VC:\u005cWindows\u005cFonts\u005cARIALNB.TTF
p3493
sg20
g21
sbag1
(g8
g3
NtRp3494
(dp3495
g11
g12
sg13
S'Eras Bold ITC'
p3496
sg15
I700
sg16
g12
sg17
g12
sg18
Vc:\u005cwindows\u005cfonts\u005cerasbd.ttf
p3497
sg20
g21
sbag1
(g8
g3
NtRp3498
(dp3499
g11
g12
sg13
S'Bookshelf Symbol 7'
p3500
sg15
I400
sg16
g12
sg17
g12
sg18
Vc:\u005cwindows\u005cfonts\u005cbssym7.ttf
p3501
sg20
g21
sbag1
(g8
g3
NtRp3502
(dp3503
g11
g12
sg13
S'Kozuka Gothic Pr6N'
p3504
sg15
I700
sg16
g12
sg17
g12
sg18
Vc:\u005cwindows\u005cfonts\u005ckozgopr6n-bold.otf
p3505
sg20
g21
sbag1
(g8
g3
NtRp3506
(dp3507
g11
g12
sg13
S'Browallia New'
p3508
sg15
I400
sg16
g12
sg17
g12
sg18
VC:\u005cWindows\u005cFonts\u005cbrowa.ttf
p3509
sg20
g21
sbag1
(g8
g3
NtRp3510
(dp3511
g11
g12
sg13
S'Kozuka Gothic Pr6N'
p3512
sg15
I400
sg16
g12
sg17
g12
sg18
VC:\u005cWindows\u005cFonts\u005cKozGoPr6N-Medium.otf
p3513
sg20
g21
sbag1
(g8
g3
NtRp3514
(dp3515
g11
g12
sg13
S'Charlemagne Std'
p3516
sg15
I700
sg16
g12
sg17
g12
sg18
VC:\u005cWindows\u005cFonts\u005cCharlemagneStd-Bold.otf
p3517
sg20
g21
sbag1
(g8
g3
NtRp3518
(dp3519
g11
g12
sg13
S'Plantagenet Cherokee'
p3520
sg15
I400
sg16
g12
sg17
g12
sg18
VC:\u005cWindows\u005cFonts\u005cplantc.ttf
p3521
sg20
g21
sbag1
(g8
g3
NtRp3522
(dp3523
g11
g12
sg13
S'Leelawadee UI'
p3524
sg15
I400
sg16
g12
sg17
g12
sg18
Vc:\u005cwindows\u005cfonts\u005cleeluisl.ttf
p3525
sg20
g21
sbag1
(g8
g3
NtRp3526
(dp3527
g11
g12
sg13
S'Centaur'
p3528
sg15
I400
sg16
g12
sg17
g12
sg18
VC:\u005cWindows\u005cFonts\u005cCENTAUR.TTF
p3529
sg20
g21
sbag1
(g8
g3
NtRp3530
(dp3531
g11
g12
sg13
S'Iskoola Pota'
p3532
sg15
I700
sg16
g12
sg17
g12
sg18
VC:\u005cWindows\u005cFonts\u005ciskpotab.ttf
p3533
sg20
g21
sbag1
(g8
g3
NtRp3534
(dp3535
g11
g12
sg13
S'Times New Roman'
p3536
sg15
I700
sg16
g12
sg17
g12
sg18
VC:\u005cWindows\u005cFonts\u005ctimesbd.ttf
p3537
sg20
g21
sbag1
(g8
g3
NtRp3538
(dp3539
g11
g12
sg13
S'Candara'
p3540
sg15
I400
sg16
g12
sg17
g12
sg18
VC:\u005cWindows\u005cFonts\u005cCandara.ttf
p3541
sg20
g21
sbag1
(g8
g3
NtRp3542
(dp3543
g11
g28
sg13
S'Myriad Pro'
p3544
sg15
I700
sg16
g203
sg17
g12
sg18
Vc:\u005cwindows\u005cfonts\u005cmyriadpro-boldcondit.otf
p3545
sg20
g21
sbag1
(g8
g3
NtRp3546
(dp3547
g11
g28
sg13
S'Lucida Handwriting'
p3548
sg15
I400
sg16
g12
sg17
g12
sg18
Vc:\u005cwindows\u005cfonts\u005clhandw.ttf
p3549
sg20
g21
sbag1
(g8
g3
NtRp3550
(dp3551
g11
g12
sg13
S'Myriad Pro'
p3552
sg15
I700
sg16
g12
sg17
g12
sg18
Vc:\u005cwindows\u005cfonts\u005cmyriadpro-bold.otf
p3553
sg20
g21
sbag1
(g8
g3
NtRp3554
(dp3555
g11
g12
sg13
S'Letter Gothic Std'
p3556
sg15
I500
sg16
g12
sg17
g12
sg18
Vc:\u005cwindows\u005cfonts\u005clettergothicstd.otf
p3557
sg20
g21
sbag1
(g8
g3
NtRp3558
(dp3559
g11
g12
sg13
S'Rockwell Extra Bold'
p3560
sg15
I700
sg16
g12
sg17
g12
sg18
Vc:\u005cwindows\u005cfonts\u005crockeb.ttf
p3561
sg20
g21
sbag1
(g8
g3
NtRp3562
(dp3563
g11
g12
sg13
S'Rockwell'
p3564
sg15
I700
sg16
g12
sg17
g12
sg18
Vc:\u005cwindows\u005cfonts\u005crockb.ttf
p3565
sg20
g21
sbag1
(g8
g3
NtRp3566
(dp3567
g11
g12
sg13
S'Playbill'
p3568
sg15
I400
sg16
g12
sg17
g12
sg18
Vc:\u005cwindows\u005cfonts\u005cplaybill.ttf
p3569
sg20
g21
sbag1
(g8
g3
NtRp3570
(dp3571
g11
g12
sg13
S'Lucida Sans Typewriter'
p3572
sg15
I700
sg16
g12
sg17
g12
sg18
Vc:\u005cwindows\u005cfonts\u005cltypeb.ttf
p3573
sg20
g21
sbag1
(g8
g3
NtRp3574
(dp3575
g11
g12
sg13
S'Rockwell'
p3576
sg15
I700
sg16
g12
sg17
g12
sg18
VC:\u005cWindows\u005cFonts\u005cROCKB.TTF
p3577
sg20
g21
sbag1
(g8
g3
NtRp3578
(dp3579
g11
g28
sg13
S'Century Gothic'
p3580
sg15
I700
sg16
g12
sg17
g12
sg18
VC:\u005cWindows\u005cFonts\u005cGOTHICBI.TTF
p3581
sg20
g21
sbag1
(g8
g3
NtRp3582
(dp3583
g11
g12
sg13
S'Bodoni MT'
p3584
sg15
I400
sg16
g12
sg17
g12
sg18
Vc:\u005cwindows\u005cfonts\u005cbod_r.ttf
p3585
sg20
g21
sbag1
(g8
g3
NtRp3586
(dp3587
g11
g12
sg13
S'Adobe Heiti Std'
p3588
sg15
I400
sg16
g12
sg17
g12
sg18
VC:\u005cWindows\u005cFonts\u005cAdobeHeitiStd-Regular.otf
p3589
sg20
g21
sbag1
(g8
g3
NtRp3590
(dp3591
g11
g12
sg13
S'Bodoni MT'
p3592
sg15
I400
sg16
g12
sg17
g12
sg18
Vc:\u005cwindows\u005cfonts\u005cbod_pstc.ttf
p3593
sg20
g21
sbag1
(g8
g3
NtRp3594
(dp3595
g11
g12
sg13
S'Buxton Sketch'
p3596
sg15
I400
sg16
g12
sg17
g12
sg18
VC:\u005cWindows\u005cFonts\u005cBuxtonSketch.ttf
p3597
sg20
g21
sbag1
(g8
g3
NtRp3598
(dp3599
g11
g28
sg13
S'Myriad Pro'
p3600
sg15
I700
sg16
g12
sg17
g12
sg18
VC:\u005cWindows\u005cFonts\u005cMyriadPro-SemiboldIt.otf
p3601
sg20
g21
sbag1
(g8
g3
NtRp3602
(dp3603
g11
g12
sg13
S'Minion Pro'
p3604
sg15
I400
sg16
g12
sg17
g12
sg18
VC:\u005cWindows\u005cFonts\u005cMinionPro-Regular.otf
p3605
sg20
g21
sbag1
(g8
g3
NtRp3606
(dp3607
g11
g12
sg13
S'Myriad Hebrew'
p3608
sg15
I700
sg16
g12
sg17
g12
sg18
Vc:\u005cwindows\u005cfonts\u005cmyriadhebrew-bold.otf
p3609
sg20
g21
sbag1
(g8
g3
NtRp3610
(dp3611
g11
g12
sg13
S'Adobe Fan Heiti Std'
p3612
sg15
I700
sg16
g12
sg17
g12
sg18
Vc:\u005cwindows\u005cfonts\u005cadobefanheitistd-bold.otf
p3613
sg20
g21
sbag1
(g8
g3
NtRp3614
(dp3615
g11
g12
sg13
S'Freestyle Script'
p3616
sg15
I400
sg16
g12
sg17
g12
sg18
VC:\u005cWindows\u005cFonts\u005cFREESCPT.TTF
p3617
sg20
g21
sbag1
(g8
g3
NtRp3618
(dp3619
g11
g12
sg13
S'Latha'
p3620
sg15
I700
sg16
g12
sg17
g12
sg18
VC:\u005cWindows\u005cFonts\u005clathab.ttf
p3621
sg20
g21
sbag1
(g8
g3
NtRp3622
(dp3623
g11
g12
sg13
S'Gabriola'
p3624
sg15
I400
sg16
g12
sg17
g12
sg18
Vc:\u005cwindows\u005cfonts\u005cgabriola.ttf
p3625
sg20
g21
sbag1
(g8
g3
NtRp3626
(dp3627
g11
g12
sg13
S'Algerian'
p3628
sg15
I400
sg16
g12
sg17
g12
sg18
Vc:\u005cwindows\u005cfonts\u005calger.ttf
p3629
sg20
g21
sbag1
(g8
g3
NtRp3630
(dp3631
g11
g28
sg13
S'Perpetua'
p3632
sg15
I700
sg16
g12
sg17
g12
sg18
Vc:\u005cwindows\u005cfonts\u005cperbi___.ttf
p3633
sg20
g21
sbag1
(g8
g3
NtRp3634
(dp3635
g11
g12
sg13
S'Tw Cen MT'
p3636
sg15
I400
sg16
g12
sg17
g12
sg18
Vc:\u005cwindows\u005cfonts\u005ctcm_____.ttf
p3637
sg20
g21
sbag1
(g8
g3
NtRp3638
(dp3639
g11
g12
sg13
S'Blackadder ITC'
p3640
sg15
I900
sg16
g12
sg17
g12
sg18
VC:\u005cWindows\u005cFonts\u005cITCBLKAD.TTF
p3641
sg20
g21
sbag1
(g8
g3
NtRp3642
(dp3643
g11
g12
sg13
S'Perpetua Titling MT'
p3644
sg15
I700
sg16
g12
sg17
g12
sg18
VC:\u005cWindows\u005cFonts\u005cPERTIBD.TTF
p3645
sg20
g21
sbag1
(g8
g3
NtRp3646
(dp3647
g11
g12
sg13
S'Ravie'
p3648
sg15
I400
sg16
g12
sg17
g12
sg18
Vc:\u005cwindows\u005cfonts\u005cravie.ttf
p3649
sg20
g21
sbag1
(g8
g3
NtRp3650
(dp3651
g11
g12
sg13
S'Tw Cen MT Condensed Extra Bold'
p3652
sg15
I700
sg16
g203
sg17
g12
sg18
Vc:\u005cwindows\u005cfonts\u005ctcceb.ttf
p3653
sg20
g21
sbag1
(g8
g3
NtRp3654
(dp3655
g11
g12
sg13
S'Eras Demi ITC'
p3656
sg15
I600
sg16
g12
sg17
g12
sg18
Vc:\u005cwindows\u005cfonts\u005cerasdemi.ttf
p3657
sg20
g21
sbag1
(g8
g3
NtRp3658
(dp3659
g11
g12
sg13
S'Adobe Garamond Pro'
p3660
sg15
I400
sg16
g12
sg17
g12
sg18
VC:\u005cWindows\u005cFonts\u005cAGaramondPro-Regular.otf
p3661
sg20
g21
sbag1
(g8
g3
NtRp3662
(dp3663
g11
g12
sg13
S'Minion Pro'
p3664
sg15
I700
sg16
g203
sg17
g12
sg18
VC:\u005cWindows\u005cFonts\u005cMinionPro-BoldCn.otf
p3665
sg20
g21
sbag1
(g8
g3
NtRp3666
(dp3667
g11
g12
sg13
S'Script MT Bold'
p3668
sg15
I700
sg16
g12
sg17
g12
sg18
Vc:\u005cwindows\u005cfonts\u005cscriptbl.ttf
p3669
sg20
g21
sbag1
(g8
g3
NtRp3670
(dp3671
g11
g28
sg13
S'Century Gothic'
p3672
sg15
I400
sg16
g12
sg17
g12
sg18
VC:\u005cWindows\u005cFonts\u005cGOTHICI.TTF
p3673
sg20
g21
sbag1
(g8
g3
NtRp3674
(dp3675
g11
g12
sg13
S'Maiandra GD'
p3676
sg15
I400
sg16
g12
sg17
g12
sg18
VC:\u005cWindows\u005cFonts\u005cMAIAN.TTF
p3677
sg20
g21
sbag1
(g8
g3
NtRp3678
(dp3679
g11
g28
sg13
S'Calisto MT'
p3680
sg15
I700
sg16
g12
sg17
g12
sg18
Vc:\u005cwindows\u005cfonts\u005ccalistbi.ttf
p3681
sg20
g21
sbag1
(g8
g3
NtRp3682
(dp3683
g11
g12
sg13
S'Old English Text MT'
p3684
sg15
I400
sg16
g12
sg17
g12
sg18
Vc:\u005cwindows\u005cfonts\u005coldengl.ttf
p3685
sg20
g21
sbag1
(g8
g3
NtRp3686
(dp3687
g11
g12
sg13
S'Tw Cen MT Condensed'
p3688
sg15
I700
sg16
g203
sg17
g12
sg18
VC:\u005cWindows\u005cFonts\u005cTCCB____.TTF
p3689
sg20
g21
sbag1
(g8
g3
NtRp3690
(dp3691
g11
g28
sg13
S'Harlow Solid Italic'
p3692
sg15
I400
sg16
g12
sg17
g12
sg18
VC:\u005cWindows\u005cFonts\u005cHARLOWSI.TTF
p3693
sg20
g21
sbag1
(g8
g3
NtRp3694
(dp3695
g11
g12
sg13
S'Khmer UI'
p3696
sg15
I400
sg16
g12
sg17
g12
sg18
VC:\u005cWindows\u005cFonts\u005cKhmerUI.ttf
p3697
sg20
g21
sbag1
(g8
g3
NtRp3698
(dp3699
g11
g28
sg13
S'Bookman Old Style'
p3700
sg15
I700
sg16
g12
sg17
g12
sg18
VC:\u005cWindows\u005cFonts\u005cBOOKOSBI.TTF
p3701
sg20
g21
sbag1
(g8
g3
NtRp3702
(dp3703
g11
g12
sg13
S'Urdu Typesetting'
p3704
sg15
I700
sg16
g12
sg17
g12
sg18
Vc:\u005cwindows\u005cfonts\u005curdtypeb.ttf
p3705
sg20
g21
sbag1
(g8
g3
NtRp3706
(dp3707
g11
g12
sg13
S'Berlin Sans FB'
p3708
sg15
I700
sg16
g12
sg17
g12
sg18
Vc:\u005cwindows\u005cfonts\u005cbrlnsb.ttf
p3709
sg20
g21
sbag1
(g8
g3
NtRp3710
(dp3711
g11
g12
sg13
S'Bell MT'
p3712
sg15
I700
sg16
g12
sg17
g12
sg18
Vc:\u005cwindows\u005cfonts\u005cbellb.ttf
p3713
sg20
g21
sbag1
(g8
g3
NtRp3714
(dp3715
g11
g12
sg13
S'Adobe Devanagari'
p3716
sg15
I400
sg16
g12
sg17
g12
sg18
Vc:\u005cwindows\u005cfonts\u005cadobedevanagari-regular.otf
p3717
sg20
g21
sbag1
(g8
g3
NtRp3718
(dp3719
g11
g28
sg13
S'Lucida Calligraphy'
p3720
sg15
I400
sg16
g12
sg17
g12
sg18
VC:\u005cWindows\u005cFonts\u005cLCALLIG.TTF
p3721
sg20
g21
sbag1
(g8
g3
NtRp3722
(dp3723
g11
g28
sg13
S'Bodoni MT'
p3724
sg15
I400
sg16
g203
sg17
g12
sg18
VC:\u005cWindows\u005cFonts\u005cBOD_CI.TTF
p3725
sg20
g21
sbag1
(g8
g3
NtRp3726
(dp3727
g11
g12
sg13
S'Tw Cen MT'
p3728
sg15
I700
sg16
g12
sg17
g12
sg18
VC:\u005cWindows\u005cFonts\u005cTCB_____.TTF
p3729
sg20
g21
sbag1
(g8
g3
NtRp3730
(dp3731
g11
g12
sg13
S'Bodoni MT'
p3732
sg15
I400
sg16
g12
sg17
g12
sg18
VC:\u005cWindows\u005cFonts\u005cBOD_PSTC.TTF
p3733
sg20
g21
sbag1
(g8
g3
NtRp3734
(dp3735
g11
g12
sg13
S'Poor Richard'
p3736
sg15
I400
sg16
g12
sg17
g12
sg18
Vc:\u005cwindows\u005cfonts\u005cpoorich.ttf
p3737
sg20
g21
sbag1
(g8
g3
NtRp3738
(dp3739
g11
g12
sg13
S'Nirmala UI'
p3740
sg15
I700
sg16
g12
sg17
g12
sg18
Vc:\u005cwindows\u005cfonts\u005cnirmalab.ttf
p3741
sg20
g21
sbag1
(g8
g3
NtRp3742
(dp3743
g11
g12
sg13
S'Rockwell Condensed'
p3744
sg15
I400
sg16
g203
sg17
g12
sg18
VC:\u005cWindows\u005cFonts\u005cROCC____.TTF
p3745
sg20
g21
sbag1
(g8
g3
NtRp3746
(dp3747
g11
g28
sg13
S'Bodoni MT'
p3748
sg15
I700
sg16
g203
sg17
g12
sg18
Vc:\u005cwindows\u005cfonts\u005cbod_cbi.ttf
p3749
sg20
g21
sbag1
(g8
g3
NtRp3750
(dp3751
g11
g12
sg13
S'Letter Gothic Std'
p3752
sg15
I700
sg16
g12
sg17
g12
sg18
Vc:\u005cwindows\u005cfonts\u005clettergothicstd-bold.otf
p3753
sg20
g21
sbag1
(g8
g3
NtRp3754
(dp3755
g11
g12
sg13
S'Kozuka Mincho Pro'
p3756
sg15
I700
sg16
g12
sg17
g12
sg18
Vc:\u005cwindows\u005cfonts\u005ckozminpro-bold.otf
p3757
sg20
g21
sbag1
(g8
g3
NtRp3758
(dp3759
g11
g12
sg13
S'Broadway'
p3760
sg15
I400
sg16
g12
sg17
g12
sg18
Vc:\u005cwindows\u005cfonts\u005cbroadw.ttf
p3761
sg20
g21
sbag1
(g8
g3
NtRp3762
(dp3763
g11
g12
sg13
S'Stencil'
p3764
sg15
I400
sg16
g12
sg17
g12
sg18
Vc:\u005cwindows\u005cfonts\u005cstencil.ttf
p3765
sg20
g21
sbag1
(g8
g3
NtRp3766
(dp3767
g11
g28
sg13
S'Myriad Pro'
p3768
sg15
I700
sg16
g203
sg17
g12
sg18
VC:\u005cWindows\u005cFonts\u005cMyriadPro-BoldCondIt.otf
p3769
sg20
g21
sbasS'defaultFamily'
p3770
(dp3771
Vafm
p3772
VHelvetica
p3773
sVttf
p3774
VBitstream Vera Sans
p3775
ssS'ttffiles'
p3776
(lp3777
g19
ag25
ag30
ag35
ag39
ag43
ag47
ag51
ag55
ag59
ag63
ag67
ag71
ag75
ag79
ag83
ag87
ag91
ag95
ag99
ag103
ag107
ag111
ag115
ag119
ag123
ag127
ag131
ag135
ag139
ag143
ag147
ag151
ag155
ag159
ag163
ag167
ag171
ag175
ag179
ag183
ag187
ag191
ag195
ag199
ag204
ag208
ag212
ag216
ag220
ag224
ag228
ag232
ag236
ag240
ag244
ag248
ag252
ag256
ag260
ag264
ag268
ag272
ag276
ag280
ag284
aVc:\u005cwindows\u005cfonts\u005ctaileb.ttf
p3778
ag288
ag292
ag296
ag300
ag304
ag308
ag312
ag316
ag320
ag324
aVc:\u005cwindows\u005cfonts\u005cseguibli.ttf
p3779
ag328
ag332
ag336
ag340
ag344
aVc:\u005cwindows\u005cfonts\u005cariali.ttf
p3780
ag348
ag352
ag356
ag360
ag364
ag368
ag372
ag376
ag380
ag384
ag388
ag392
ag396
aVC:\u005cWindows\u005cFonts\u005ccordiab.ttf
p3781
ag400
ag404
ag408
ag412
ag416
ag420
ag424
ag428
ag432
ag436
ag440
ag444
ag448
ag452
aVc:\u005cwindows\u005cfonts\u005ckokilab.ttf
p3782
ag456
ag460
aVc:\u005cwindows\u005cfonts\u005cgautamib.ttf
p3783
ag464
ag468
ag472
ag476
ag480
ag484
ag488
ag492
ag496
ag500
ag504
ag508
ag512
ag516
ag520
ag524
ag528
ag532
ag536
ag540
aVC:\u005cWindows\u005cFonts\u005cnrkis.ttf
p3784
ag544
ag548
ag552
ag556
ag560
ag564
ag568
ag572
ag576
ag580
ag584
ag588
ag592
ag596
ag600
ag604
ag608
ag612
ag616
ag620
ag624
ag628
ag632
ag636
ag640
ag644
ag648
ag652
ag656
ag660
ag664
ag668
ag672
ag676
ag680
ag684
ag688
ag692
ag696
ag700
ag704
ag708
ag712
ag716
ag720
ag724
ag728
ag732
ag736
ag740
ag744
ag748
ag752
aVC:\u005cWindows\u005cFonts\u005csegoeui.ttf
p3785
ag756
ag760
ag764
ag768
ag772
ag776
ag780
ag784
ag788
ag792
ag796
ag800
ag804
ag808
ag812
ag816
aVc:\u005cwindows\u005cfonts\u005cyumindb.ttf
p3786
ag820
ag824
ag828
ag832
ag836
ag840
ag844
ag848
ag852
ag856
ag860
ag864
ag868
ag872
ag876
ag880
ag884
ag888
ag892
ag896
ag900
ag904
aVc:\u005cwindows\u005cfonts\u005cutsaahb.ttf
p3787
ag908
ag912
ag916
ag920
ag924
ag928
ag932
ag936
ag940
ag944
ag948
ag952
ag956
ag960
ag964
ag968
ag972
ag976
ag980
ag984
ag988
ag992
ag996
ag1000
ag1004
ag1008
ag1012
ag1016
ag1020
ag1024
ag1028
ag1032
ag1036
ag1040
ag1044
aVc:\u005cwindows\u005cfonts\u005ctaile.ttf
p3788
ag1048
ag1052
ag1056
aVC:\u005cWindows\u005cFonts\u005cbrowab.ttf
p3789
ag1060
ag1064
ag1068
ag1072
ag1076
ag1080
ag1084
ag1088
ag1092
ag1096
ag1100
ag1104
ag1108
ag1112
ag1116
ag1120
ag1124
ag1128
ag1132
ag1136
ag1140
ag1144
ag1148
aVc:\u005cwindows\u005cfonts\u005cupckbi.ttf
p3790
ag1152
ag1156
ag1160
ag1164
ag1168
ag1172
aVC:\u005cWindows\u005cFonts\u005ccomicz.ttf
p3791
ag1176
ag1180
ag1184
ag1188
ag1192
ag1196
ag1200
aVC:\u005cWindows\u005cFonts\u005csymbol.ttf
p3792
ag1204
ag1208
ag1212
ag1216
ag1220
ag1224
ag1228
ag1232
ag1236
ag1240
ag1244
aVC:\u005cWindows\u005cFonts\u005cverdanai.ttf
p3793
ag1248
ag1252
aVc:\u005cwindows\u005cfonts\u005csegoepr.ttf
p3794
aVc:\u005cwindows\u005cfonts\u005cmicross.ttf
p3795
ag1256
ag1260
ag1264
ag1268
ag1272
ag1276
aVc:\u005cwindows\u005cfonts\u005ckalingab.ttf
p3796
ag1280
ag1284
ag1288
ag1292
ag1296
ag1300
aVc:\u005cwindows\u005cfonts\u005cleelawad.ttf
p3797
aVc:\u005cwindows\u005cfonts\u005carial.ttf
p3798
ag1304
ag1308
ag1312
ag1316
ag1320
ag1324
aVc:\u005cwindows\u005cfonts\u005cl_10646.ttf
p3799
ag1328
ag1332
ag1336
aVC:\u005cWindows\u005cFonts\u005cseguisb.ttf
p3800
ag1340
ag1344
ag1348
ag1352
ag1356
ag1360
ag1364
ag1368
aVC:\u005cWindows\u005cFonts\u005cmoolbor.ttf
p3801
ag1372
ag1376
ag1380
ag1384
ag1388
ag1392
ag1396
ag1400
ag1404
ag1408
ag1412
ag1416
ag1420
aVC:\u005cWindows\u005cFonts\u005ctahomabd.ttf
p3802
ag1424
aVc:\u005cwindows\u005cfonts\u005cupcjb.ttf
p3803
ag1428
ag1432
ag1436
ag1440
aVc:\u005cwindows\u005cfonts\u005ckokilai.ttf
p3804
aVc:\u005cwindows\u005cfonts\u005ckokilabi.ttf
p3805
ag1444
ag1448
ag1452
ag1456
ag1460
ag1464
ag1468
aVc:\u005cwindows\u005cfonts\u005cconstan.ttf
p3806
ag1472
ag1476
ag1480
ag1484
ag1488
ag1492
ag1496
ag1500
ag1504
ag1508
ag1512
ag1516
ag1520
ag1524
ag1528
ag1532
ag1536
aVc:\u005cwindows\u005cfonts\u005ccour.ttf
p3807
aVC:\u005cWindows\u005cFonts\u005clatha.ttf
p3808
ag1540
aVc:\u005cwindows\u005cfonts\u005cdaunpenh.ttf
p3809
ag1544
ag1548
ag1552
ag1556
ag1560
ag1564
ag1568
ag1572
ag1576
ag1580
ag1584
ag1588
ag1592
ag1596
ag1600
aVC:\u005cWindows\u005cFonts\u005carialbd.ttf
p3810
ag1604
ag1608
ag1612
ag1616
ag1620
ag1624
ag1628
ag1632
ag1636
ag1640
ag1644
aVC:\u005cWindows\u005cFonts\u005clucon.ttf
p3811
ag1648
ag1652
aVC:\u005cWindows\u005cFonts\u005cupcdb.ttf
p3812
aVC:\u005cWindows\u005cFonts\u005cjavatext.ttf
p3813
aVC:\u005cWindows\u005cFonts\u005cconsola.ttf
p3814
ag1656
ag1660
ag1664
ag1668
ag1672
ag1676
ag1680
aVC:\u005cWindows\u005cFonts\u005cbrowai.ttf
p3815
ag1684
ag1688
ag1692
ag1696
ag1700
ag1704
ag1708
ag1712
ag1716
ag1720
ag1724
ag1728
ag1732
ag1736
ag1740
ag1744
ag1748
ag1752
aVc:\u005cwindows\u005cfonts\u005ccalibril.ttf
p3816
aVC:\u005cWindows\u005cFonts\u005caldhabi.ttf
p3817
ag1756
ag1760
ag1764
ag1768
ag1772
ag1776
ag1780
ag1784
ag1788
aVc:\u005cwindows\u005cfonts\u005cyugothib.ttf
p3818
ag1792
aVC:\u005cWindows\u005cFonts\u005cbrowauz.ttf
p3819
ag1796
ag1800
ag1804
ag1808
ag1812
ag1816
aVc:\u005cwindows\u005cfonts\u005ctrebucit.ttf
p3820
ag1820
ag1824
aVC:\u005cWindows\u005cFonts\u005carabtype.ttf
p3821
aVc:\u005cwindows\u005cfonts\u005ccourbd.ttf
p3822
ag1828
ag1832
ag1836
ag1840
aVc:\u005cwindows\u005cfonts\u005cshrutib.ttf
p3823
ag1844
aVC:\u005cWindows\u005cFonts\u005ctrebucbi.ttf
p3824
aVc:\u005cwindows\u005cfonts\u005cbrowaui.ttf
p3825
ag1848
ag1852
ag1856
ag1860
ag1864
ag1868
ag1872
ag1876
ag1880
ag1884
ag1888
aVC:\u005cWindows\u005cFonts\u005cupcii.ttf
p3826
ag1892
aVc:\u005cwindows\u005cfonts\u005ctimesbi.ttf
p3827
aVc:\u005cwindows\u005cfonts\u005cmangalb.ttf
p3828
ag1896
ag1900
ag1904
ag1908
ag1912
ag1916
ag1920
ag1924
ag1928
ag1932
ag1936
ag1940
aVc:\u005cwindows\u005cfonts\u005cupclb.ttf
p3829
ag1944
ag1948
aVC:\u005cWindows\u005cFonts\u005cupcdi.ttf
p3830
ag1952
ag1956
aVC:\u005cWindows\u005cFonts\u005carialbi.ttf
p3831
aVc:\u005cwindows\u005cfonts\u005cupcebi.ttf
p3832
ag1960
ag1964
ag1968
ag1972
ag1976
ag1980
ag1984
ag1988
ag1992
ag1996
ag2000
aVC:\u005cWindows\u005cFonts\u005caparajbi.ttf
p3833
ag2004
ag2008
aVc:\u005cwindows\u005cfonts\u005cupceb.ttf
p3834
ag2012
ag2016
ag2020
ag2024
ag2028
aVC:\u005cWindows\u005cFonts\u005ccordiaub.ttf
p3835
ag2032
ag2036
aVc:\u005cwindows\u005cfonts\u005cframdit.ttf
p3836
ag2040
aVc:\u005cwindows\u005cfonts\u005cconstanb.ttf
p3837
ag2044
aVC:\u005cWindows\u005cFonts\u005cyumin.ttf
p3838
ag2048
ag2052
ag2056
ag2060
ag2064
ag2068
ag2072
aVC:\u005cWindows\u005cFonts\u005cvijayab.ttf
p3839
ag2076
ag2080
ag2084
aVc:\u005cwindows\u005cfonts\u005ccalibriz.ttf
p3840
ag2088
aVc:\u005cwindows\u005cfonts\u005ccomici.ttf
p3841
ag2092
ag2096
ag2100
ag2104
ag2108
ag2112
aVC:\u005cWindows\u005cFonts\u005cangsauz.ttf
p3842
ag2116
aVC:\u005cWindows\u005cFonts\u005ciskpota.ttf
p3843
aVc:\u005cwindows\u005cfonts\u005cupcib.ttf
p3844
ag2120
aVC:\u005cWindows\u005cFonts\u005ccouri.ttf
p3845
ag2124
aVC:\u005cWindows\u005cFonts\u005ccordiauz.ttf
p3846
ag2128
ag2132
aVc:\u005cwindows\u005cfonts\u005ceuphemia.ttf
p3847
ag2136
aVc:\u005cwindows\u005cfonts\u005cangsab.ttf
p3848
ag2140
ag2144
ag2148
aVc:\u005cwindows\u005cfonts\u005caparaji.ttf
p3849
ag2152
aVc:\u005cwindows\u005cfonts\u005cconstanz.ttf
p3850
ag2156
aVC:\u005cWindows\u005cFonts\u005cyugothil.ttf
p3851
aVC:\u005cWindows\u005cFonts\u005caparaj.ttf
p3852
ag2160
ag2164
aVC:\u005cWindows\u005cFonts\u005csylfaen.ttf
p3853
ag2168
ag2172
ag2176
ag2180
aVC:\u005cWindows\u005cFonts\u005cverdanaz.ttf
p3854
ag2184
ag2188
ag2192
ag2196
ag2200
ag2204
ag2208
ag2212
aVC:\u005cWindows\u005cFonts\u005ctungab.ttf
p3855
ag2216
aVc:\u005cwindows\u005cfonts\u005cyuminl.ttf
p3856
aVC:\u005cWindows\u005cFonts\u005cmriam.ttf
p3857
ag2220
ag2224
aVC:\u005cWindows\u005cFonts\u005ccomicbd.ttf
p3858
ag2228
ag2232
ag2236
ag2240
aVc:\u005cwindows\u005cfonts\u005clvnm.ttf
p3859
ag2244
ag2248
ag2252
ag2256
ag2260
ag2264
ag2269
ag2273
ag2277
aVc:\u005cwindows\u005cfonts\u005cmsyi.ttf
p3860
aVc:\u005cwindows\u005cfonts\u005cwingding.ttf
p3861
aVC:\u005cWindows\u005cFonts\u005csimkai.ttf
p3862
ag2281
ag2285
aVC:\u005cWindows\u005cFonts\u005ctradbdo.ttf
p3863
ag2289
aVC:\u005cWindows\u005cFonts\u005csimhei.ttf
p3864
ag2293
ag2297
ag2301
ag2305
ag2309
aVC:\u005cWindows\u005cFonts\u005cupcji.ttf
p3865
ag2313
ag2317
ag2321
ag2325
ag2329
ag2333
ag2337
ag2341
ag2345
ag2349
aVc:\u005cwindows\u005cfonts\u005cangsa.ttf
p3866
ag2353
ag2357
ag2361
aVC:\u005cWindows\u005cFonts\u005cupcel.ttf
p3867
ag2365
ag2369
ag2373
ag2377
ag2381
ag2385
aVC:\u005cWindows\u005cFonts\u005cupcjl.ttf
p3868
ag2389
ag2393
aVC:\u005cWindows\u005cFonts\u005cupcil.ttf
p3869
ag2397
ag2401
ag2405
ag2409
ag2413
ag2417
ag2421
ag2425
ag2429
ag2433
ag2437
ag2441
ag2445
ag2449
ag2453
ag2457
ag2461
ag2465
ag2469
ag2473
ag2477
ag2481
ag2485
aVC:\u005cWindows\u005cFonts\u005cmsuighub.ttf
p3870
aVC:\u005cWindows\u005cFonts\u005csimpbdo.ttf
p3871
ag2489
ag2493
aVc:\u005cwindows\u005cfonts\u005caparajb.ttf
p3872
aVC:\u005cWindows\u005cFonts\u005cdavidbd.ttf
p3873
ag2497
aVc:\u005cwindows\u005cfonts\u005cariblk.ttf
p3874
ag2501
ag2505
ag2509
ag2513
ag2517
ag2521
aVc:\u005cwindows\u005cfonts\u005craavib.ttf
p3875
ag2525
ag2529
ag2533
ag2537
ag2541
ag2545
aVC:\u005cWindows\u005cFonts\u005ctrebuc.ttf
p3876
ag2549
ag2553
ag2557
aVC:\u005cWindows\u005cFonts\u005cconsolab.ttf
p3877
ag2561
ag2565
ag2569
ag2573
ag2577
ag2581
ag2585
aVc:\u005cwindows\u005cfonts\u005cupcll.ttf
p3878
ag2589
ag2593
ag2597
ag2601
ag2605
ag2609
ag2613
ag2617
ag2621
ag2625
ag2629
ag2633
ag2637
ag2641
ag2645
ag2649
aVc:\u005cwindows\u005cfonts\u005ccalibrii.ttf
p3879
aVc:\u005cwindows\u005cfonts\u005ctimesi.ttf
p3880
ag2653
aVc:\u005cwindows\u005cfonts\u005cupcfl.ttf
p3881
ag2657
ag2661
ag2665
aVC:\u005cWindows\u005cFonts\u005cupcjbi.ttf
p3882
aVC:\u005cWindows\u005cFonts\u005ccourbi.ttf
p3883
aVC:\u005cWindows\u005cFonts\u005ccorbelb.ttf
p3884
ag2669
aVc:\u005cwindows\u005cfonts\u005cmsuighur.ttf
p3885
aVc:\u005cwindows\u005cfonts\u005cupcfb.ttf
p3886
aVC:\u005cWindows\u005cFonts\u005cpalai.ttf
p3887
ag2673
ag2677
ag2681
ag2685
aVC:\u005cWindows\u005cFonts\u005cupckb.ttf
p3888
ag2689
ag2693
ag2697
ag2701
ag2705
ag2709
ag2713
aVC:\u005cWindows\u005cFonts\u005ccordia.ttf
p3889
ag2717
ag2721
ag2725
ag2729
ag2733
ag2737
aVC:\u005cWindows\u005cFonts\u005cyugothic.ttf
p3890
ag2741
aVC:\u005cWindows\u005cFonts\u005cnyala.ttf
p3891
ag2745
aVC:\u005cWindows\u005cFonts\u005csimsunb.ttf
p3892
aVc:\u005cwindows\u005cfonts\u005cseguili.ttf
p3893
aVc:\u005cwindows\u005cfonts\u005cmalgunbd.ttf
p3894
ag2749
ag2753
ag2757
ag2761
ag2765
ag2769
aVc:\u005cwindows\u005cfonts\u005cntailu.ttf
p3895
ag2773
aVc:\u005cwindows\u005cfonts\u005ckartikab.ttf
p3896
aVc:\u005cwindows\u005cfonts\u005cdavid.ttf
p3897
aVC:\u005cWindows\u005cFonts\u005ccalibrili.ttf
p3898
ag2777
ag2781
ag2785
ag2789
aVC:\u005cWindows\u005cFonts\u005cbrowau.ttf
p3899
ag2793
ag2797
aVc:\u005cwindows\u005cfonts\u005cupcfbi.ttf
p3900
aVc:\u005cwindows\u005cfonts\u005cleelawdb.ttf
p3901
aVc:\u005cwindows\u005cfonts\u005cgeorgiaz.ttf
p3902
ag2801
ag2805
aVc:\u005cwindows\u005cfonts\u005cwebdings.ttf
p3903
ag2809
ag2813
aVC:\u005cWindows\u005cFonts\u005cupclbi.ttf
p3904
ag2817
ag2821
ag2825
aVC:\u005cWindows\u005cFonts\u005csegoeuiz.ttf
p3905
ag2829
ag2833
aVC:\u005cWindows\u005cFonts\u005ctimes.ttf
p3906
ag2837
ag2841
ag2845
ag2849
ag2853
aVc:\u005cwindows\u005cfonts\u005cconsolai.ttf
p3907
aVC:\u005cWindows\u005cFonts\u005cmriamc.ttf
p3908
ag2857
ag2861
ag2865
ag2869
ag2873
ag2877
ag2881
aVc:\u005cwindows\u005cfonts\u005cgeorgia.ttf
p3909
ag2885
aVC:\u005cWindows\u005cFonts\u005cvrindab.ttf
p3910
ag2889
ag2893
ag2897
ag2901
ag2905
ag2909
aVc:\u005cwindows\u005cfonts\u005cmonbaiti.ttf
p3911
ag2913
ag2917
ag2921
aVc:\u005cwindows\u005cfonts\u005ckaiu.ttf
p3912
ag2925
ag2929
aVc:\u005cwindows\u005cfonts\u005ccorbel.ttf
p3913
ag2933
ag2937
aVC:\u005cWindows\u005cFonts\u005ccambriai.ttf
p3914
ag2941
aVc:\u005cwindows\u005cfonts\u005ckokila.ttf
p3915
aVC:\u005cWindows\u005cFonts\u005cutsaahi.ttf
p3916
ag2945
ag2949
ag2953
aVc:\u005cwindows\u005cfonts\u005cmajallab.ttf
p3917
ag2957
ag2961
ag2965
ag2969
aVC:\u005cWindows\u005cFonts\u005cbrowaub.ttf
p3918
aVC:\u005cWindows\u005cFonts\u005cseguibl.ttf
p3919
aVc:\u005cwindows\u005cfonts\u005cmmrtext.ttf
p3920
ag2973
aVc:\u005cwindows\u005cfonts\u005csegoesc.ttf
p3921
ag2977
ag2981
ag2985
aVC:\u005cWindows\u005cFonts\u005csegoeuisl.ttf
p3922
aVC:\u005cWindows\u005cFonts\u005cpalab.ttf
p3923
ag2989
aVC:\u005cWindows\u005cFonts\u005cgisha.ttf
p3924
aVC:\u005cWindows\u005cFonts\u005cphagspa.ttf
p3925
ag2993
aVc:\u005cwindows\u005cfonts\u005ccorbelz.ttf
p3926
aVC:\u005cWindows\u005cFonts\u005cupcdbi.ttf
p3927
ag2997
ag3001
ag3005
ag3009
ag3013
ag3017
aVc:\u005cwindows\u005cfonts\u005ccomic.ttf
p3928
aVC:\u005cWindows\u005cFonts\u005cfrank.ttf
p3929
ag3021
aVc:\u005cwindows\u005cfonts\u005csegoeprb.ttf
p3930
ag3025
ag3029
ag3033
aVc:\u005cwindows\u005cfonts\u005cmmrtextb.ttf
p3931
ag3037
ag3041
ag3045
aVC:\u005cWindows\u005cFonts\u005cahronbd.ttf
p3932
ag3049
aVC:\u005cWindows\u005cFonts\u005cverdanab.ttf
p3933
ag3053
aVc:\u005cwindows\u005cfonts\u005ctahoma.ttf
p3934
ag3057
aVc:\u005cwindows\u005cfonts\u005ckalinga.ttf
p3935
aVc:\u005cwindows\u005cfonts\u005ccorbeli.ttf
p3936
aVC:\u005cWindows\u005cFonts\u005csimpo.ttf
p3937
ag3061
aVc:\u005cwindows\u005cfonts\u005candlso.ttf
p3938
ag3065
ag3069
aVc:\u005cwindows\u005cfonts\u005ccalibrib.ttf
p3939
aVc:\u005cwindows\u005cfonts\u005cframd.ttf
p3940
ag3073
ag3077
ag3081
ag3085
ag3089
ag3093
ag3097
ag3101
aVc:\u005cwindows\u005cfonts\u005ccordiai.ttf
p3941
aVC:\u005cWindows\u005cFonts\u005cupckl.ttf
p3942
ag3105
ag3109
ag3113
ag3117
ag3121
aVc:\u005cwindows\u005cfonts\u005cseguisli.ttf
p3943
aVc:\u005cwindows\u005cfonts\u005cimpact.ttf
p3944
aVc:\u005cwindows\u005cfonts\u005cmalgun.ttf
p3945
ag3125
ag3129
ag3133
ag3137
ag3141
ag3145
ag3149
ag3153
aVC:\u005cWindows\u005cFonts\u005ccambriab.ttf
p3946
ag3157
ag3161
ag3165
ag3169
ag3173
ag3177
aVc:\u005cwindows\u005cfonts\u005cgeorgiai.ttf
p3947
ag3181
aVC:\u005cWindows\u005cFonts\u005cseguiemj.ttf
p3948
ag3185
aVc:\u005cwindows\u005cfonts\u005chimalaya.ttf
p3949
ag3189
ag3193
ag3197
ag3201
ag3205
ag3209
ag3213
aVc:\u005cwindows\u005cfonts\u005cestre.ttf
p3950
ag3217
ag3221
ag3225
ag3229
ag3233
ag3237
ag3241
ag3245
ag3249
ag3253
ag3257
aVc:\u005cwindows\u005cfonts\u005ccordiaz.ttf
p3951
ag3261
ag3265
ag3269
ag3273
ag3277
ag3281
ag3285
ag3289
aVC:\u005cWindows\u005cFonts\u005cebrimabd.ttf
p3952
ag3293
ag3297
aVc:\u005cwindows\u005cfonts\u005ccambriaz.ttf
p3953
ag3301
aVC:\u005cWindows\u005cFonts\u005cbrowaz.ttf
p3954
ag3305
ag3309
aVc:\u005cwindows\u005cfonts\u005cangsau.ttf
p3955
ag3313
ag3317
ag3321
ag3325
ag3329
ag3333
aVc:\u005cwindows\u005cfonts\u005cangsaub.ttf
p3956
ag3337
ag3341
aVC:\u005cWindows\u005cFonts\u005cmangal.ttf
p3957
aVC:\u005cWindows\u005cFonts\u005csimpfxo.ttf
p3958
ag3345
ag3349
ag3353
ag3357
ag3361
ag3365
aVC:\u005cWindows\u005cFonts\u005cpala.ttf
p3959
ag3369
aVc:\u005cwindows\u005cfonts\u005csegoeuib.ttf
p3960
aVc:\u005cwindows\u005cfonts\u005cgadugib.ttf
p3961
ag3373
ag3377
ag3381
aVc:\u005cwindows\u005cfonts\u005csegoeuil.ttf
p3962
aVC:\u005cWindows\u005cFonts\u005cupcfi.ttf
p3963
ag3385
ag3389
ag3393
ag3397
aVC:\u005cWindows\u005cFonts\u005crod.ttf
p3964
ag3401
ag3405
ag3409
ag3413
aVc:\u005cwindows\u005cfonts\u005cgautami.ttf
p3965
ag3417
ag3421
aVC:\u005cWindows\u005cFonts\u005csimfang.ttf
p3966
ag3425
ag3429
ag3433
aVc:\u005cwindows\u005cfonts\u005cebrima.ttf
p3967
ag3437
ag3441
ag3445
ag3449
ag3453
ag3457
ag3461
ag3465
ag3469
aVC:\u005cWindows\u005cFonts\u005cvijaya.ttf
p3968
aVc:\u005cwindows\u005cfonts\u005ctrado.ttf
p3969
ag3473
ag3477
aVc:\u005cwindows\u005cfonts\u005cangsai.ttf
p3970
ag3481
ag3485
ag3489
ag3493
aVc:\u005cwindows\u005cfonts\u005cmajalla.ttf
p3971
ag3497
aVc:\u005cwindows\u005cfonts\u005craavi.ttf
p3972
ag3501
ag3505
aVc:\u005cwindows\u005cfonts\u005ctunga.ttf
p3973
aVC:\u005cWindows\u005cFonts\u005cseguisbi.ttf
p3974
ag3509
ag3513
aVc:\u005cwindows\u005cfonts\u005cupcibi.ttf
p3975
ag3517
aVC:\u005cWindows\u005cFonts\u005csegoescb.ttf
p3976
ag3521
aVC:\u005cWindows\u005cFonts\u005cgadugi.ttf
p3977
aVc:\u005cwindows\u005cfonts\u005cvrinda.ttf
p3978
ag3525
ag3529
ag3533
aVc:\u005cwindows\u005cfonts\u005cverdana.ttf
p3979
ag3537
ag3541
ag3545
aVC:\u005cWindows\u005cFonts\u005cutsaah.ttf
p3980
aVC:\u005cWindows\u005cFonts\u005ccalibri.ttf
p3981
ag3549
ag3553
ag3557
ag3561
aVc:\u005cwindows\u005cfonts\u005ctimesbd.ttf
p3982
aVc:\u005cwindows\u005cfonts\u005cupcki.ttf
p3983
ag3565
ag3569
ag3573
ag3577
ag3581
aVC:\u005cWindows\u005cFonts\u005cangsaz.ttf
p3984
ag3585
ag3589
aVc:\u005cwindows\u005cfonts\u005cplantc.ttf
p3985
ag3593
ag3597
ag3601
aVC:\u005cWindows\u005cFonts\u005cseguisym.ttf
p3986
aVc:\u005cwindows\u005cfonts\u005cconstani.ttf
p3987
ag3605
ag3609
aVc:\u005cwindows\u005cfonts\u005cshruti.ttf
p3988
aVc:\u005cwindows\u005cfonts\u005cntailub.ttf
p3989
ag3613
ag3617
ag3621
ag3625
aVC:\u005cWindows\u005cFonts\u005cupcdl.ttf
p3990
ag3629
ag3633
aVc:\u005cwindows\u005cfonts\u005cpalabi.ttf
p3991
aVC:\u005cWindows\u005cFonts\u005ccordiaui.ttf
p3992
ag3637
ag3641
ag3645
ag3649
aVc:\u005cwindows\u005cfonts\u005cbrowa.ttf
p3993
aVC:\u005cWindows\u005cFonts\u005cconsolaz.ttf
p3994
ag3653
aVC:\u005cWindows\u005cFonts\u005cupcei.ttf
p3995
ag3657
ag3661
aVc:\u005cwindows\u005cfonts\u005clathab.ttf
p3996
aVc:\u005cwindows\u005cfonts\u005cutsaahbi.ttf
p3997
ag3665
ag3669
ag3673
ag3677
ag3681
ag3685
ag3689
aVc:\u005cwindows\u005cfonts\u005cmvboli.ttf
p3998
aVC:\u005cWindows\u005cFonts\u005ccordiau.ttf
p3999
ag3693
aVC:\u005cWindows\u005cFonts\u005cangsaui.ttf
p4000
aVc:\u005cwindows\u005cfonts\u005clvnmbd.ttf
p4001
ag3697
ag3701
ag3705
aVc:\u005cwindows\u005cfonts\u005ciskpotab.ttf
p4002
ag3709
ag3713
ag3717
ag3721
ag3725
aVc:\u005cwindows\u005cfonts\u005ckartika.ttf
p4003
ag3729
aVc:\u005cwindows\u005cfonts\u005cdokchamp.ttf
p4004
ag3733
aVC:\u005cWindows\u005cFonts\u005ctrebucbd.ttf
p4005
aVc:\u005cwindows\u005cfonts\u005cphagspab.ttf
p4006
aVC:\u005cWindows\u005cFonts\u005cgeorgiab.ttf
p4007
ag3737
ag3741
ag3745
aVc:\u005cwindows\u005cfonts\u005cgishabd.ttf
p4008
aVC:\u005cWindows\u005cFonts\u005cupcli.ttf
p4009
ag3749
aVC:\u005cWindows\u005cFonts\u005csegoeuii.ttf
p4010
ag3753
ag3757
ag3761
ag3765
ag3769
asS'_FontManager__default_weight'
p4011
Vnormal
p4012
sS'_version'
p4013
I101
sS'default_size'
p4014
NsS'defaultFont'
p4015
(dp4016
g3772
VC:\u005cAnaconda\u005clib\u005csite-packages\u005cmatplotlib\u005cmpl-data\u005cfonts\u005cafm\u005cpagk8a.afm
p4017
sg3774
g71
ssS'afmfiles'
p4018
(lp4019
g4017
aVC:\u005cAnaconda\u005clib\u005csite-packages\u005cmatplotlib\u005cmpl-data\u005cfonts\u005cpdfcorefonts\u005cHelvetica-BoldOblique.afm
p4020
aVC:\u005cAnaconda\u005clib\u005csite-packages\u005cmatplotlib\u005cmpl-data\u005cfonts\u005cafm\u005cpagko8a.afm
p4021
aVC:\u005cAnaconda\u005clib\u005csite-packages\u005cmatplotlib\u005cmpl-data\u005cfonts\u005cafm\u005cpplri8a.afm
p4022
aVC:\u005cAnaconda\u005clib\u005csite-packages\u005cmatplotlib\u005cmpl-data\u005cfonts\u005cafm\u005ccmex10.afm
p4023
aVC:\u005cAnaconda\u005clib\u005csite-packages\u005cmatplotlib\u005cmpl-data\u005cfonts\u005cpdfcorefonts\u005cTimes-BoldItalic.afm
p4024
aVC:\u005cAnaconda\u005clib\u005csite-packages\u005cmatplotlib\u005cmpl-data\u005cfonts\u005cafm\u005ccmr10.afm
p4025
aVC:\u005cAnaconda\u005clib\u005csite-packages\u005cmatplotlib\u005cmpl-data\u005cfonts\u005cafm\u005cpplbi8a.afm
p4026
aVC:\u005cAnaconda\u005clib\u005csite-packages\u005cmatplotlib\u005cmpl-data\u005cfonts\u005cafm\u005cpagd8a.afm
p4027
aVC:\u005cAnaconda\u005clib\u005csite-packages\u005cmatplotlib\u005cmpl-data\u005cfonts\u005cafm\u005ccmsy10.afm
p4028
aVC:\u005cAnaconda\u005clib\u005csite-packages\u005cmatplotlib\u005cmpl-data\u005cfonts\u005cafm\u005cpcrr8a.afm
p4029
aVC:\u005cAnaconda\u005clib\u005csite-packages\u005cmatplotlib\u005cmpl-data\u005cfonts\u005cafm\u005cpsyr.afm
p4030
aVC:\u005cAnaconda\u005clib\u005csite-packages\u005cmatplotlib\u005cmpl-data\u005cfonts\u005cafm\u005cpcrro8a.afm
p4031
aVC:\u005cAnaconda\u005clib\u005csite-packages\u005cmatplotlib\u005cmpl-data\u005cfonts\u005cafm\u005cphvl8a.afm
p4032
aVC:\u005cAnaconda\u005clib\u005csite-packages\u005cmatplotlib\u005cmpl-data\u005cfonts\u005cafm\u005cptmbi8a.afm
p4033
aVC:\u005cAnaconda\u005clib\u005csite-packages\u005cmatplotlib\u005cmpl-data\u005cfonts\u005cafm\u005ccmtt10.afm
p4034
aVC:\u005cAnaconda\u005clib\u005csite-packages\u005cmatplotlib\u005cmpl-data\u005cfonts\u005cafm\u005cputb8a.afm
p4035
aVC:\u005cAnaconda\u005clib\u005csite-packages\u005cmatplotlib\u005cmpl-data\u005cfonts\u005cpdfcorefonts\u005cHelvetica.afm
p4036
aVC:\u005cAnaconda\u005clib\u005csite-packages\u005cmatplotlib\u005cmpl-data\u005cfonts\u005cafm\u005cpzcmi8a.afm
p4037
aVC:\u005cAnaconda\u005clib\u005csite-packages\u005cmatplotlib\u005cmpl-data\u005cfonts\u005cafm\u005cpncri8a.afm
p4038
aVC:\u005cAnaconda\u005clib\u005csite-packages\u005cmatplotlib\u005cmpl-data\u005cfonts\u005cpdfcorefonts\u005cTimes-Bold.afm
p4039
aVC:\u005cAnaconda\u005clib\u005csite-packages\u005cmatplotlib\u005cmpl-data\u005cfonts\u005cafm\u005cputri8a.afm
p4040
aVC:\u005cAnaconda\u005clib\u005csite-packages\u005cmatplotlib\u005cmpl-data\u005cfonts\u005cpdfcorefonts\u005cHelvetica-Bold.afm
p4041
aVC:\u005cAnaconda\u005clib\u005csite-packages\u005cmatplotlib\u005cmpl-data\u005cfonts\u005cafm\u005cphvb8an.afm
p4042
aVC:\u005cAnaconda\u005clib\u005csite-packages\u005cmatplotlib\u005cmpl-data\u005cfonts\u005cpdfcorefonts\u005cCourier-Bold.afm
p4043
aVC:\u005cAnaconda\u005clib\u005csite-packages\u005cmatplotlib\u005cmpl-data\u005cfonts\u005cafm\u005cptmb8a.afm
p4044
aVC:\u005cAnaconda\u005clib\u005csite-packages\u005cmatplotlib\u005cmpl-data\u005cfonts\u005cafm\u005cpncb8a.afm
p4045
aVC:\u005cAnaconda\u005clib\u005csite-packages\u005cmatplotlib\u005cmpl-data\u005cfonts\u005cafm\u005cphvb8a.afm
p4046
aVC:\u005cAnaconda\u005clib\u005csite-packages\u005cmatplotlib\u005cmpl-data\u005cfonts\u005cafm\u005cpzdr.afm
p4047
aVC:\u005cAnaconda\u005clib\u005csite-packages\u005cmatplotlib\u005cmpl-data\u005cfonts\u005cafm\u005cphvro8an.afm
p4048
aVC:\u005cAnaconda\u005clib\u005csite-packages\u005cmatplotlib\u005cmpl-data\u005cfonts\u005cpdfcorefonts\u005cTimes-Roman.afm
p4049
aVC:\u005cAnaconda\u005clib\u005csite-packages\u005cmatplotlib\u005cmpl-data\u005cfonts\u005cpdfcorefonts\u005cHelvetica-Oblique.afm
p4050
aVC:\u005cAnaconda\u005clib\u005csite-packages\u005cmatplotlib\u005cmpl-data\u005cfonts\u005cafm\u005cpplb8a.afm
p4051
aVC:\u005cAnaconda\u005clib\u005csite-packages\u005cmatplotlib\u005cmpl-data\u005cfonts\u005cafm\u005cphvro8a.afm
p4052
aVC:\u005cAnaconda\u005clib\u005csite-packages\u005cmatplotlib\u005cmpl-data\u005cfonts\u005cafm\u005cphvr8an.afm
p4053
aVC:\u005cAnaconda\u005clib\u005csite-packages\u005cmatplotlib\u005cmpl-data\u005cfonts\u005cpdfcorefonts\u005cCourier.afm
p4054
aVC:\u005cAnaconda\u005clib\u005csite-packages\u005cmatplotlib\u005cmpl-data\u005cfonts\u005cafm\u005cpncr8a.afm
p4055
aVC:\u005cAnaconda\u005clib\u005csite-packages\u005cmatplotlib\u005cmpl-data\u005cfonts\u005cafm\u005cputr8a.afm
p4056
aVC:\u005cAnaconda\u005clib\u005csite-packages\u005cmatplotlib\u005cmpl-data\u005cfonts\u005cafm\u005cpcrb8a.afm
p4057
aVC:\u005cAnaconda\u005clib\u005csite-packages\u005cmatplotlib\u005cmpl-data\u005cfonts\u005cpdfcorefonts\u005cCourier-BoldOblique.afm
p4058
aVC:\u005cAnaconda\u005clib\u005csite-packages\u005cmatplotlib\u005cmpl-data\u005cfonts\u005cafm\u005cpagdo8a.afm
p4059
aVC:\u005cAnaconda\u005clib\u005csite-packages\u005cmatplotlib\u005cmpl-data\u005cfonts\u005cpdfcorefonts\u005cCourier-Oblique.afm
p4060
aVC:\u005cAnaconda\u005clib\u005csite-packages\u005cmatplotlib\u005cmpl-data\u005cfonts\u005cafm\u005ccmmi10.afm
p4061
aVC:\u005cAnaconda\u005clib\u005csite-packages\u005cmatplotlib\u005cmpl-data\u005cfonts\u005cafm\u005cphvbo8an.afm
p4062
aVC:\u005cAnaconda\u005clib\u005csite-packages\u005cmatplotlib\u005cmpl-data\u005cfonts\u005cafm\u005cphvlo8a.afm
p4063
aVC:\u005cAnaconda\u005clib\u005csite-packages\u005cmatplotlib\u005cmpl-data\u005cfonts\u005cafm\u005cputbi8a.afm
p4064
aVC:\u005cAnaconda\u005clib\u005csite-packages\u005cmatplotlib\u005cmpl-data\u005cfonts\u005cpdfcorefonts\u005cZapfDingbats.afm
p4065
aVC:\u005cAnaconda\u005clib\u005csite-packages\u005cmatplotlib\u005cmpl-data\u005cfonts\u005cafm\u005cpplr8a.afm
p4066
aVC:\u005cAnaconda\u005clib\u005csite-packages\u005cmatplotlib\u005cmpl-data\u005cfonts\u005cafm\u005cphvr8a.afm
p4067
aVC:\u005cAnaconda\u005clib\u005csite-packages\u005cmatplotlib\u005cmpl-data\u005cfonts\u005cafm\u005cpncbi8a.afm
p4068
aVC:\u005cAnaconda\u005clib\u005csite-packages\u005cmatplotlib\u005cmpl-data\u005cfonts\u005cpdfcorefonts\u005cTimes-Italic.afm
p4069
aVC:\u005cAnaconda\u005clib\u005csite-packages\u005cmatplotlib\u005cmpl-data\u005cfonts\u005cafm\u005cptmr8a.afm
p4070
aVC:\u005cAnaconda\u005clib\u005csite-packages\u005cmatplotlib\u005cmpl-data\u005cfonts\u005cafm\u005cpcrbo8a.afm
p4071
aVC:\u005cAnaconda\u005clib\u005csite-packages\u005cmatplotlib\u005cmpl-data\u005cfonts\u005cafm\u005cphvbo8a.afm
p4072
aVC:\u005cAnaconda\u005clib\u005csite-packages\u005cmatplotlib\u005cmpl-data\u005cfonts\u005cafm\u005cpbkl8a.afm
p4073
aVC:\u005cAnaconda\u005clib\u005csite-packages\u005cmatplotlib\u005cmpl-data\u005cfonts\u005cafm\u005cpbkli8a.afm
p4074
aVC:\u005cAnaconda\u005clib\u005csite-packages\u005cmatplotlib\u005cmpl-data\u005cfonts\u005cafm\u005cptmri8a.afm
p4075
aVC:\u005cAnaconda\u005clib\u005csite-packages\u005cmatplotlib\u005cmpl-data\u005cfonts\u005cafm\u005cpbkd8a.afm
p4076
aVC:\u005cAnaconda\u005clib\u005csite-packages\u005cmatplotlib\u005cmpl-data\u005cfonts\u005cpdfcorefonts\u005cSymbol.afm
p4077
aVC:\u005cAnaconda\u005clib\u005csite-packages\u005cmatplotlib\u005cmpl-data\u005cfonts\u005cafm\u005cpbkdi8a.afm
p4078
asS'afmlist'
p4079
(lp4080
g1
(g8
g3
NtRp4081
(dp4082
g11
Vnormal
p4083
sg13
S'ITC Avant Garde Gothic'
p4084
sg15
I400
sg16
g4083
sg17
g4083
sg18
g4017
sg20
Vscalable
p4085
sbag1
(g8
g3
NtRp4086
(dp4087
g11
Vitalic
p4088
sg13
S'Helvetica'
p4089
sg15
I700
sg16
g4083
sg17
g4083
sg18
g4020
sg20
g4085
sbag1
(g8
g3
NtRp4090
(dp4091
g11
g4088
sg13
S'ITC Avant Garde Gothic'
p4092
sg15
I400
sg16
g4083
sg17
g4083
sg18
g4021
sg20
g4085
sbag1
(g8
g3
NtRp4093
(dp4094
g11
g4088
sg13
S'Palatino'
p4095
sg15
I500
sg16
g4083
sg17
g4083
sg18
g4022
sg20
g4085
sbag1
(g8
g3
NtRp4096
(dp4097
g11
g4083
sg13
S'Computer Modern'
p4098
sg15
I500
sg16
g4083
sg17
g4083
sg18
g4023
sg20
g4085
sbag1
(g8
g3
NtRp4099
(dp4100
g11
g4088
sg13
S'Times'
p4101
sg15
I700
sg16
g4083
sg17
g4083
sg18
g4024
sg20
g4085
sbag1
(g8
g3
NtRp4102
(dp4103
g11
g4083
sg13
S'Computer Modern'
p4104
sg15
I500
sg16
g4083
sg17
g4083
sg18
g4025
sg20
g4085
sbag1
(g8
g3
NtRp4105
(dp4106
g11
g4088
sg13
S'Palatino'
p4107
sg15
I700
sg16
g4083
sg17
g4083
sg18
g4026
sg20
g4085
sbag1
(g8
g3
NtRp4108
(dp4109
g11
g4083
sg13
S'ITC Avant Garde Gothic'
p4110
sg15
I600
sg16
g4083
sg17
g4083
sg18
g4027
sg20
g4085
sbag1
(g8
g3
NtRp4111
(dp4112
g11
g4088
sg13
S'Computer Modern'
p4113
sg15
I500
sg16
g4083
sg17
g4083
sg18
g4028
sg20
g4085
sbag1
(g8
g3
NtRp4114
(dp4115
g11
g4083
sg13
S'Courier'
p4116
sg15
I500
sg16
g4083
sg17
g4083
sg18
g4029
sg20
g4085
sbag1
(g8
g3
NtRp4117
(dp4118
g11
g4083
sg13
S'Symbol'
p4119
sg15
I500
sg16
g4083
sg17
g4083
sg18
g4030
sg20
g4085
sbag1
(g8
g3
NtRp4120
(dp4121
g11
g4088
sg13
S'Courier'
p4122
sg15
I500
sg16
g4083
sg17
g4083
sg18
g4031
sg20
g4085
sbag1
(g8
g3
NtRp4123
(dp4124
g11
g4083
sg13
S'Helvetica'
p4125
sg15
I200
sg16
g4083
sg17
g4083
sg18
g4032
sg20
g4085
sbag1
(g8
g3
NtRp4126
(dp4127
g11
g4088
sg13
S'Times'
p4128
sg15
I700
sg16
g4083
sg17
g4083
sg18
g4033
sg20
g4085
sbag1
(g8
g3
NtRp4129
(dp4130
g11
g4083
sg13
S'Computer Modern'
p4131
sg15
I500
sg16
g4083
sg17
g4083
sg18
g4034
sg20
g4085
sbag1
(g8
g3
NtRp4132
(dp4133
g11
g4083
sg13
S'Utopia'
p4134
sg15
I700
sg16
g4083
sg17
g4083
sg18
g4035
sg20
g4085
sbag1
(g8
g3
NtRp4135
(dp4136
g11
g4083
sg13
S'Helvetica'
p4137
sg15
I500
sg16
g4083
sg17
g4083
sg18
g4036
sg20
g4085
sbag1
(g8
g3
NtRp4138
(dp4139
g11
g4088
sg13
S'ITC Zapf Chancery'
p4140
sg15
I500
sg16
g4083
sg17
g4083
sg18
g4037
sg20
g4085
sbag1
(g8
g3
NtRp4141
(dp4142
g11
g4088
sg13
S'New Century Schoolbook'
p4143
sg15
I500
sg16
g4083
sg17
g4083
sg18
g4038
sg20
g4085
sbag1
(g8
g3
NtRp4144
(dp4145
g11
g4083
sg13
S'Times'
p4146
sg15
I700
sg16
g4083
sg17
g4083
sg18
g4039
sg20
g4085
sbag1
(g8
g3
NtRp4147
(dp4148
g11
g4088
sg13
S'Utopia'
p4149
sg15
I400
sg16
g4083
sg17
g4083
sg18
g4040
sg20
g4085
sbag1
(g8
g3
NtRp4150
(dp4151
g11
g4083
sg13
S'Helvetica'
p4152
sg15
I700
sg16
g4083
sg17
g4083
sg18
g4041
sg20
g4085
sbag1
(g8
g3
NtRp4153
(dp4154
g11
g4083
sg13
S'Helvetica'
p4155
sg15
I700
sg16
Vcondensed
p4156
sg17
g4083
sg18
g4042
sg20
g4085
sbag1
(g8
g3
NtRp4157
(dp4158
g11
g4083
sg13
S'Courier'
p4159
sg15
I700
sg16
g4083
sg17
g4083
sg18
g4043
sg20
g4085
sbag1
(g8
g3
NtRp4160
(dp4161
g11
g4083
sg13
S'Times'
p4162
sg15
I700
sg16
g4083
sg17
g4083
sg18
g4044
sg20
g4085
sbag1
(g8
g3
NtRp4163
(dp4164
g11
g4083
sg13
S'New Century Schoolbook'
p4165
sg15
I700
sg16
g4083
sg17
g4083
sg18
g4045
sg20
g4085
sbag1
(g8
g3
NtRp4166
(dp4167
g11
g4083
sg13
S'Helvetica'
p4168
sg15
I700
sg16
g4083
sg17
g4083
sg18
g4046
sg20
g4085
sbag1
(g8
g3
NtRp4169
(dp4170
g11
g4083
sg13
S'ITC Zapf Dingbats'
p4171
sg15
I500
sg16
g4083
sg17
g4083
sg18
g4047
sg20
g4085
sbag1
(g8
g3
NtRp4172
(dp4173
g11
g4088
sg13
S'Helvetica'
p4174
sg15
I500
sg16
g4156
sg17
g4083
sg18
g4048
sg20
g4085
sbag1
(g8
g3
NtRp4175
(dp4176
g11
g4083
sg13
S'Times'
p4177
sg15
I500
sg16
g4083
sg17
g4083
sg18
g4049
sg20
g4085
sbag1
(g8
g3
NtRp4178
(dp4179
g11
g4088
sg13
S'Helvetica'
p4180
sg15
I500
sg16
g4083
sg17
g4083
sg18
g4050
sg20
g4085
sbag1
(g8
g3
NtRp4181
(dp4182
g11
g4083
sg13
S'Palatino'
p4183
sg15
I700
sg16
g4083
sg17
g4083
sg18
g4051
sg20
g4085
sbag1
(g8
g3
NtRp4184
(dp4185
g11
g4088
sg13
S'Helvetica'
p4186
sg15
I500
sg16
g4083
sg17
g4083
sg18
g4052
sg20
g4085
sbag1
(g8
g3
NtRp4187
(dp4188
g11
g4083
sg13
S'Helvetica'
p4189
sg15
I500
sg16
g4156
sg17
g4083
sg18
g4053
sg20
g4085
sbag1
(g8
g3
NtRp4190
(dp4191
g11
g4083
sg13
S'Courier'
p4192
sg15
I500
sg16
g4083
sg17
g4083
sg18
g4054
sg20
g4085
sbag1
(g8
g3
NtRp4193
(dp4194
g11
g4083
sg13
S'New Century Schoolbook'
p4195
sg15
I500
sg16
g4083
sg17
g4083
sg18
g4055
sg20
g4085
sbag1
(g8
g3
NtRp4196
(dp4197
g11
g4083
sg13
S'Utopia'
p4198
sg15
I400
sg16
g4083
sg17
g4083
sg18
g4056
sg20
g4085
sbag1
(g8
g3
NtRp4199
(dp4200
g11
g4083
sg13
S'Courier'
p4201
sg15
I700
sg16
g4083
sg17
g4083
sg18
g4057
sg20
g4085
sbag1
(g8
g3
NtRp4202
(dp4203
g11
g4088
sg13
S'Courier'
p4204
sg15
I700
sg16
g4083
sg17
g4083
sg18
g4058
sg20
g4085
sbag1
(g8
g3
NtRp4205
(dp4206
g11
g4088
sg13
S'ITC Avant Garde Gothic'
p4207
sg15
I600
sg16
g4083
sg17
g4083
sg18
g4059
sg20
g4085
sbag1
(g8
g3
NtRp4208
(dp4209
g11
g4088
sg13
S'Courier'
p4210
sg15
I500
sg16
g4083
sg17
g4083
sg18
g4060
sg20
g4085
sbag1
(g8
g3
NtRp4211
(dp4212
g11
g4088
sg13
S'Computer Modern'
p4213
sg15
I500
sg16
g4083
sg17
g4083
sg18
g4061
sg20
g4085
sbag1
(g8
g3
NtRp4214
(dp4215
g11
g4088
sg13
S'Helvetica'
p4216
sg15
I700
sg16
g4156
sg17
g4083
sg18
g4062
sg20
g4085
sbag1
(g8
g3
NtRp4217
(dp4218
g11
g4088
sg13
S'Helvetica'
p4219
sg15
I200
sg16
g4083
sg17
g4083
sg18
g4063
sg20
g4085
sbag1
(g8
g3
NtRp4220
(dp4221
g11
g4088
sg13
S'Utopia'
p4222
sg15
I700
sg16
g4083
sg17
g4083
sg18
g4064
sg20
g4085
sbag1
(g8
g3
NtRp4223
(dp4224
g11
g4083
sg13
S'ZapfDingbats'
p4225
sg15
I500
sg16
g4083
sg17
g4083
sg18
g4065
sg20
g4085
sbag1
(g8
g3
NtRp4226
(dp4227
g11
g4083
sg13
S'Palatino'
p4228
sg15
I500
sg16
g4083
sg17
g4083
sg18
g4066
sg20
g4085
sbag1
(g8
g3
NtRp4229
(dp4230
g11
g4083
sg13
S'Helvetica'
p4231
sg15
I500
sg16
g4083
sg17
g4083
sg18
g4067
sg20
g4085
sbag1
(g8
g3
NtRp4232
(dp4233
g11
g4088
sg13
S'New Century Schoolbook'
p4234
sg15
I700
sg16
g4083
sg17
g4083
sg18
g4068
sg20
g4085
sbag1
(g8
g3
NtRp4235
(dp4236
g11
g4088
sg13
S'Times'
p4237
sg15
I500
sg16
g4083
sg17
g4083
sg18
g4069
sg20
g4085
sbag1
(g8
g3
NtRp4238
(dp4239
g11
g4083
sg13
S'Times'
p4240
sg15
I500
sg16
g4083
sg17
g4083
sg18
g4070
sg20
g4085
sbag1
(g8
g3
NtRp4241
(dp4242
g11
g4088
sg13
S'Courier'
p4243
sg15
I700
sg16
g4083
sg17
g4083
sg18
g4071
sg20
g4085
sbag1
(g8
g3
NtRp4244
(dp4245
g11
g4088
sg13
S'Helvetica'
p4246
sg15
I700
sg16
g4083
sg17
g4083
sg18
g4072
sg20
g4085
sbag1
(g8
g3
NtRp4247
(dp4248
g11
g4083
sg13
S'ITC Bookman'
p4249
sg15
I200
sg16
g4083
sg17
g4083
sg18
g4073
sg20
g4085
sbag1
(g8
g3
NtRp4250
(dp4251
g11
g4088
sg13
S'ITC Bookman'
p4252
sg15
I200
sg16
g4083
sg17
g4083
sg18
g4074
sg20
g4085
sbag1
(g8
g3
NtRp4253
(dp4254
g11
g4088
sg13
S'Times'
p4255
sg15
I500
sg16
g4083
sg17
g4083
sg18
g4075
sg20
g4085
sbag1
(g8
g3
NtRp4256
(dp4257
g11
g4083
sg13
S'ITC Bookman'
p4258
sg15
I600
sg16
g4083
sg17
g4083
sg18
g4076
sg20
g4085
sbag1
(g8
g3
NtRp4259
(dp4260
g11
g4083
sg13
S'Symbol'
p4261
sg15
I500
sg16
g4083
sg17
g4083
sg18
g4077
sg20
g4085
sbag1
(g8
g3
NtRp4262
(dp4263
g11
g4088
sg13
S'ITC Bookman'
p4264
sg15
I600
sg16
g4083
sg17
g4083
sg18
g4078
sg20
g4085
sbasb.